;--------------------------------------------------------
; File Created by SDCC : free open source ANSI-C Compiler
; Version 4.0.3 #11875 (MINGW64)
;--------------------------------------------------------
	.module gbdk_player
	.optsdcc -mgbz80
	
;--------------------------------------------------------
; Public variables in this module
;--------------------------------------------------------
	.globl _main
	.globl _hUGE_mute_channel
	.globl _hUGE_dosound
	.globl _hUGE_init
	.globl _set_bkg_tiles
	.globl _set_bkg_data
	.globl _wait_vbl_done
	.globl _waitpadup
	.globl _joypad
	.globl _add_VBL
	.globl _c3
	.globl _c2
	.globl _c1
	.globl _c0
	.globl _joy
	.globl _map
	.globl _pattern2
	.globl _pattern1
	.globl _Intro
;--------------------------------------------------------
; special function registers
;--------------------------------------------------------
;--------------------------------------------------------
; ram data
;--------------------------------------------------------
	.area _DATA
_joy::
	.ds 1
_c0::
	.ds 1
_c1::
	.ds 1
_c2::
	.ds 1
_c3::
	.ds 1
;--------------------------------------------------------
; absolute external ram data
;--------------------------------------------------------
	.area _DABS (ABS)
;--------------------------------------------------------
; global & static initialisations
;--------------------------------------------------------
	.area _HOME
	.area _GSINIT
	.area _GSFINAL
	.area _GSINIT
;gbdk_player.c:9: UBYTE c0 = 0, c1 = 0, c2 = 0, c3 = 0;
	ld	hl, #_c0
	ld	(hl), #0x00
;gbdk_player.c:9: 
	ld	hl, #_c1
	ld	(hl), #0x00
;gbdk_player.c:9: UBYTE c0 = 0, c1 = 0, c2 = 0, c3 = 0;
	ld	hl, #_c2
	ld	(hl), #0x00
;gbdk_player.c:9: 
	ld	hl, #_c3
	ld	(hl), #0x00
;--------------------------------------------------------
; Home
;--------------------------------------------------------
	.area _HOME
	.area _HOME
;--------------------------------------------------------
; code
;--------------------------------------------------------
	.area _CODE
;gbdk_player.c:15: void main() {
;	---------------------------------
; Function main
; ---------------------------------
_main::
;gbdk_player.c:16: LCDC_REG = 0xD1;
	ld	a, #0xd1
	ldh	(_LCDC_REG+0),a
;gbdk_player.c:17: BGP_REG  = 0b11100100;
	ld	a, #0xe4
	ldh	(_BGP_REG+0),a
;gbdk_player.c:18: NR52_REG = 0x80;
	ld	a, #0x80
	ldh	(_NR52_REG+0),a
;gbdk_player.c:19: NR51_REG = 0xFF;
	ld	a, #0xff
	ldh	(_NR51_REG+0),a
;gbdk_player.c:20: NR50_REG = 0x77;
	ld	a, #0x77
	ldh	(_NR50_REG+0),a
;gbdk_player.c:22: set_bkg_data(0, 1, pattern1);
	ld	hl, #_pattern1
	push	hl
	ld	a, #0x01
	push	af
	inc	sp
	xor	a, a
	push	af
	inc	sp
	call	_set_bkg_data
	add	sp, #4
;gbdk_player.c:23: set_bkg_data(0x20, 1, pattern2);
	ld	hl, #_pattern2
	push	hl
	ld	de, #0x0120
	push	de
	call	_set_bkg_data
	add	sp, #4
;gbdk_player.c:28: }
	di
;gbdk_player.c:26: hUGE_init(&Intro);
	ld	hl, #_Intro
	push	hl
	call	_hUGE_init
	add	sp, #2
;gbdk_player.c:27: add_VBL(hUGE_dosound);
	ld	hl, #_hUGE_dosound
	push	hl
	call	_add_VBL
	add	sp, #2
	ei
;gbdk_player.c:30: while(1) {
00107$:
;gbdk_player.c:31: wait_vbl_done();
	call	_wait_vbl_done
;gbdk_player.c:32: joy = joypad();
	call	_joypad
	ld	hl, #_joy
	ld	(hl), e
;gbdk_player.c:33: switch (joy) {
	ld	a, (hl)
	dec	a
	jp	Z,00104$
	ld	a, (#_joy)
	sub	a, #0x02
	jr	Z, 00103$
	ld	a, (#_joy)
	sub	a, #0x04
	jr	Z, 00101$
	ld	a, (#_joy)
	sub	a, #0x08
	jr	Z, 00102$
	jr	00107$
;gbdk_player.c:34: case J_UP    : c0 ^= 1; hUGE_mute_channel(HT_CH1, c0); set_bkg_tiles(0,0,1,1,&map[c0 & 1]); waitpadup(); break;
00101$:
	ld	hl, #_c0
	ld	a, (hl)
	xor	a, #0x01
	ld	(hl), a
	ld	a, (hl)
	push	af
	inc	sp
	xor	a, a
	push	af
	inc	sp
	call	_hUGE_mute_channel
	add	sp, #2
	ld	bc, #_map+0
	ld	a, (#_c0)
	and	a, #0x01
	ld	h, #0x00
	ld	l, a
	add	hl, bc
	push	hl
	ld	de, #0x0101
	push	de
	xor	a, a
	push	af
	inc	sp
	xor	a, a
	push	af
	inc	sp
	call	_set_bkg_tiles
	add	sp, #6
	call	_waitpadup
	jr	00107$
;gbdk_player.c:35: case J_DOWN  : c1 ^= 1; hUGE_mute_channel(HT_CH2, c1); set_bkg_tiles(1,0,1,1,&map[c1 & 1]); waitpadup(); break;
00102$:
	ld	hl, #_c1
	ld	a, (hl)
	xor	a, #0x01
	ld	(hl), a
	ld	d, (hl)
	ld	e,#0x01
	push	de
	call	_hUGE_mute_channel
	add	sp, #2
	ld	bc, #_map+0
	ld	a, (#_c1)
	and	a, #0x01
	ld	h, #0x00
	ld	l, a
	add	hl, bc
	push	hl
	ld	de, #0x0101
	push	de
	xor	a, a
	ld	d,a
	ld	e,#0x01
	push	de
	call	_set_bkg_tiles
	add	sp, #6
	call	_waitpadup
	jp	00107$
;gbdk_player.c:36: case J_LEFT  : c2 ^= 1; hUGE_mute_channel(HT_CH3, c2); set_bkg_tiles(2,0,1,1,&map[c2 & 1]); waitpadup(); break;
00103$:
	ld	hl, #_c2
	ld	a, (hl)
	xor	a, #0x01
	ld	(hl), a
	ld	d, (hl)
	ld	e,#0x02
	push	de
	call	_hUGE_mute_channel
	add	sp, #2
	ld	bc, #_map+0
	ld	a, (#_c2)
	and	a, #0x01
	ld	h, #0x00
	ld	l, a
	add	hl, bc
	push	hl
	ld	de, #0x0101
	push	de
	xor	a, a
	ld	d,a
	ld	e,#0x02
	push	de
	call	_set_bkg_tiles
	add	sp, #6
	call	_waitpadup
	jp	00107$
;gbdk_player.c:37: case J_RIGHT : c3 ^= 1; hUGE_mute_channel(HT_CH4, c3); set_bkg_tiles(3,0,1,1,&map[c3 & 1]); waitpadup(); break;
00104$:
	ld	hl, #_c3
	ld	a, (hl)
	xor	a, #0x01
	ld	(hl), a
	ld	d, (hl)
	ld	e,#0x03
	push	de
	call	_hUGE_mute_channel
	add	sp, #2
	ld	bc, #_map+0
	ld	a, (#_c3)
	and	a, #0x01
	ld	h, #0x00
	ld	l, a
	add	hl, bc
	push	hl
	ld	de, #0x0101
	push	de
	xor	a, a
	ld	d,a
	ld	e,#0x03
	push	de
	call	_set_bkg_tiles
	add	sp, #6
	call	_waitpadup
;gbdk_player.c:38: }
;gbdk_player.c:40: }
	jp	00107$
_order_cnt:
	.db #0x10	; 16
_P0:
	.db #0x5a	; 90	'Z'
	.db #0x00	; 0
	.db #0x00	; 0
	.db #0x5a	; 90	'Z'
	.db #0x00	; 0
	.db #0x00	; 0
	.db #0x5a	; 90	'Z'
	.db #0x00	; 0
	.db #0x00	; 0
	.db #0x5a	; 90	'Z'
	.db #0x00	; 0
	.db #0x00	; 0
	.db #0x5a	; 90	'Z'
	.db #0x00	; 0
	.db #0x00	; 0
	.db #0x5a	; 90	'Z'
	.db #0x00	; 0
	.db #0x00	; 0
	.db #0x5a	; 90	'Z'
	.db #0x00	; 0
	.db #0x00	; 0
	.db #0x5a	; 90	'Z'
	.db #0x00	; 0
	.db #0x00	; 0
	.db #0x5a	; 90	'Z'
	.db #0x00	; 0
	.db #0x00	; 0
	.db #0x5a	; 90	'Z'
	.db #0x00	; 0
	.db #0x00	; 0
	.db #0x5a	; 90	'Z'
	.db #0x00	; 0
	.db #0x00	; 0
	.db #0x5a	; 90	'Z'
	.db #0x00	; 0
	.db #0x00	; 0
	.db #0x5a	; 90	'Z'
	.db #0x00	; 0
	.db #0x00	; 0
	.db #0x5a	; 90	'Z'
	.db #0x00	; 0
	.db #0x00	; 0
	.db #0x5a	; 90	'Z'
	.db #0x00	; 0
	.db #0x00	; 0
	.db #0x5a	; 90	'Z'
	.db #0x00	; 0
	.db #0x00	; 0
	.db #0x5a	; 90	'Z'
	.db #0x00	; 0
	.db #0x00	; 0
	.db #0x5a	; 90	'Z'
	.db #0x00	; 0
	.db #0x00	; 0
	.db #0x5a	; 90	'Z'
	.db #0x00	; 0
	.db #0x00	; 0
	.db #0x5a	; 90	'Z'
	.db #0x00	; 0
	.db #0x00	; 0
	.db #0x5a	; 90	'Z'
	.db #0x00	; 0
	.db #0x00	; 0
	.db #0x5a	; 90	'Z'
	.db #0x00	; 0
	.db #0x00	; 0
	.db #0x5a	; 90	'Z'
	.db #0x00	; 0
	.db #0x00	; 0
	.db #0x5a	; 90	'Z'
	.db #0x00	; 0
	.db #0x00	; 0
	.db #0x5a	; 90	'Z'
	.db #0x00	; 0
	.db #0x00	; 0
	.db #0x5a	; 90	'Z'
	.db #0x00	; 0
	.db #0x00	; 0
	.db #0x5a	; 90	'Z'
	.db #0x00	; 0
	.db #0x00	; 0
	.db #0x5a	; 90	'Z'
	.db #0x00	; 0
	.db #0x00	; 0
	.db #0x5a	; 90	'Z'
	.db #0x00	; 0
	.db #0x00	; 0
	.db #0x5a	; 90	'Z'
	.db #0x00	; 0
	.db #0x00	; 0
	.db #0x5a	; 90	'Z'
	.db #0x00	; 0
	.db #0x00	; 0
	.db #0x5a	; 90	'Z'
	.db #0x00	; 0
	.db #0x00	; 0
	.db #0x5a	; 90	'Z'
	.db #0x00	; 0
	.db #0x00	; 0
	.db #0x5a	; 90	'Z'
	.db #0x00	; 0
	.db #0x00	; 0
	.db #0x5a	; 90	'Z'
	.db #0x00	; 0
	.db #0x00	; 0
	.db #0x5a	; 90	'Z'
	.db #0x00	; 0
	.db #0x00	; 0
	.db #0x5a	; 90	'Z'
	.db #0x00	; 0
	.db #0x00	; 0
	.db #0x5a	; 90	'Z'
	.db #0x00	; 0
	.db #0x00	; 0
	.db #0x5a	; 90	'Z'
	.db #0x00	; 0
	.db #0x00	; 0
	.db #0x5a	; 90	'Z'
	.db #0x00	; 0
	.db #0x00	; 0
	.db #0x5a	; 90	'Z'
	.db #0x00	; 0
	.db #0x00	; 0
	.db #0x5a	; 90	'Z'
	.db #0x00	; 0
	.db #0x00	; 0
	.db #0x5a	; 90	'Z'
	.db #0x00	; 0
	.db #0x00	; 0
	.db #0x5a	; 90	'Z'
	.db #0x00	; 0
	.db #0x00	; 0
	.db #0x5a	; 90	'Z'
	.db #0x00	; 0
	.db #0x00	; 0
	.db #0x5a	; 90	'Z'
	.db #0x00	; 0
	.db #0x00	; 0
	.db #0x5a	; 90	'Z'
	.db #0x00	; 0
	.db #0x00	; 0
	.db #0x5a	; 90	'Z'
	.db #0x00	; 0
	.db #0x00	; 0
	.db #0x5a	; 90	'Z'
	.db #0x00	; 0
	.db #0x00	; 0
	.db #0x5a	; 90	'Z'
	.db #0x00	; 0
	.db #0x00	; 0
	.db #0x5a	; 90	'Z'
	.db #0x00	; 0
	.db #0x00	; 0
	.db #0x5a	; 90	'Z'
	.db #0x00	; 0
	.db #0x00	; 0
	.db #0x5a	; 90	'Z'
	.db #0x00	; 0
	.db #0x00	; 0
	.db #0x5a	; 90	'Z'
	.db #0x00	; 0
	.db #0x00	; 0
	.db #0x5a	; 90	'Z'
	.db #0x00	; 0
	.db #0x00	; 0
	.db #0x5a	; 90	'Z'
	.db #0x00	; 0
	.db #0x00	; 0
	.db #0x5a	; 90	'Z'
	.db #0x00	; 0
	.db #0x00	; 0
	.db #0x5a	; 90	'Z'
	.db #0x00	; 0
	.db #0x00	; 0
	.db #0x5a	; 90	'Z'
	.db #0x00	; 0
	.db #0x00	; 0
	.db #0x5a	; 90	'Z'
	.db #0x00	; 0
	.db #0x00	; 0
	.db #0x5a	; 90	'Z'
	.db #0x00	; 0
	.db #0x00	; 0
	.db #0x5a	; 90	'Z'
	.db #0x00	; 0
	.db #0x00	; 0
	.db #0x5a	; 90	'Z'
	.db #0x00	; 0
	.db #0x00	; 0
	.db #0x5a	; 90	'Z'
	.db #0x00	; 0
	.db #0x00	; 0
_P1:
	.db #0x1d	; 29
	.db #0x10	; 16
	.db #0x00	; 0
	.db #0x20	; 32
	.db #0x03	; 3
	.db #0x32	; 50	'2'
	.db #0x24	; 36
	.db #0x03	; 3
	.db #0x32	; 50	'2'
	.db #0x29	; 41
	.db #0x03	; 3
	.db #0x32	; 50	'2'
	.db #0x2c	; 44
	.db #0x03	; 3
	.db #0x32	; 50	'2'
	.db #0x29	; 41
	.db #0x03	; 3
	.db #0x32	; 50	'2'
	.db #0x24	; 36
	.db #0x03	; 3
	.db #0x32	; 50	'2'
	.db #0x20	; 32
	.db #0x03	; 3
	.db #0x32	; 50	'2'
	.db #0x1d	; 29
	.db #0x03	; 3
	.db #0x32	; 50	'2'
	.db #0x20	; 32
	.db #0x03	; 3
	.db #0x32	; 50	'2'
	.db #0x24	; 36
	.db #0x03	; 3
	.db #0x32	; 50	'2'
	.db #0x29	; 41
	.db #0x03	; 3
	.db #0x32	; 50	'2'
	.db #0x2c	; 44
	.db #0x03	; 3
	.db #0x32	; 50	'2'
	.db #0x29	; 41
	.db #0x03	; 3
	.db #0x32	; 50	'2'
	.db #0x24	; 36
	.db #0x03	; 3
	.db #0x32	; 50	'2'
	.db #0x20	; 32
	.db #0x03	; 3
	.db #0x32	; 50	'2'
	.db #0x1d	; 29
	.db #0x03	; 3
	.db #0x32	; 50	'2'
	.db #0x24	; 36
	.db #0x03	; 3
	.db #0x32	; 50	'2'
	.db #0x27	; 39
	.db #0x03	; 3
	.db #0x32	; 50	'2'
	.db #0x2c	; 44
	.db #0x03	; 3
	.db #0x32	; 50	'2'
	.db #0x30	; 48	'0'
	.db #0x03	; 3
	.db #0x32	; 50	'2'
	.db #0x2c	; 44
	.db #0x03	; 3
	.db #0x32	; 50	'2'
	.db #0x27	; 39
	.db #0x03	; 3
	.db #0x32	; 50	'2'
	.db #0x24	; 36
	.db #0x03	; 3
	.db #0x32	; 50	'2'
	.db #0x20	; 32
	.db #0x03	; 3
	.db #0x32	; 50	'2'
	.db #0x24	; 36
	.db #0x03	; 3
	.db #0x32	; 50	'2'
	.db #0x27	; 39
	.db #0x03	; 3
	.db #0x32	; 50	'2'
	.db #0x2c	; 44
	.db #0x03	; 3
	.db #0x32	; 50	'2'
	.db #0x30	; 48	'0'
	.db #0x03	; 3
	.db #0x32	; 50	'2'
	.db #0x2c	; 44
	.db #0x03	; 3
	.db #0x32	; 50	'2'
	.db #0x27	; 39
	.db #0x03	; 3
	.db #0x32	; 50	'2'
	.db #0x24	; 36
	.db #0x03	; 3
	.db #0x32	; 50	'2'
	.db #0x22	; 34
	.db #0x03	; 3
	.db #0x32	; 50	'2'
	.db #0x26	; 38
	.db #0x03	; 3
	.db #0x32	; 50	'2'
	.db #0x29	; 41
	.db #0x03	; 3
	.db #0x32	; 50	'2'
	.db #0x2e	; 46
	.db #0x03	; 3
	.db #0x32	; 50	'2'
	.db #0x32	; 50	'2'
	.db #0x03	; 3
	.db #0x32	; 50	'2'
	.db #0x2e	; 46
	.db #0x03	; 3
	.db #0x32	; 50	'2'
	.db #0x29	; 41
	.db #0x03	; 3
	.db #0x32	; 50	'2'
	.db #0x26	; 38
	.db #0x03	; 3
	.db #0x32	; 50	'2'
	.db #0x22	; 34
	.db #0x03	; 3
	.db #0x32	; 50	'2'
	.db #0x26	; 38
	.db #0x03	; 3
	.db #0x32	; 50	'2'
	.db #0x29	; 41
	.db #0x03	; 3
	.db #0x32	; 50	'2'
	.db #0x2e	; 46
	.db #0x03	; 3
	.db #0x32	; 50	'2'
	.db #0x32	; 50	'2'
	.db #0x03	; 3
	.db #0x32	; 50	'2'
	.db #0x2e	; 46
	.db #0x03	; 3
	.db #0x32	; 50	'2'
	.db #0x29	; 41
	.db #0x03	; 3
	.db #0x32	; 50	'2'
	.db #0x26	; 38
	.db #0x03	; 3
	.db #0x32	; 50	'2'
	.db #0x1d	; 29
	.db #0x03	; 3
	.db #0x32	; 50	'2'
	.db #0x24	; 36
	.db #0x03	; 3
	.db #0x32	; 50	'2'
	.db #0x29	; 41
	.db #0x03	; 3
	.db #0x32	; 50	'2'
	.db #0x30	; 48	'0'
	.db #0x03	; 3
	.db #0x32	; 50	'2'
	.db #0x35	; 53	'5'
	.db #0x03	; 3
	.db #0x32	; 50	'2'
	.db #0x30	; 48	'0'
	.db #0x03	; 3
	.db #0x32	; 50	'2'
	.db #0x29	; 41
	.db #0x03	; 3
	.db #0x32	; 50	'2'
	.db #0x24	; 36
	.db #0x03	; 3
	.db #0x32	; 50	'2'
	.db #0x1d	; 29
	.db #0x03	; 3
	.db #0x32	; 50	'2'
	.db #0x24	; 36
	.db #0x03	; 3
	.db #0x32	; 50	'2'
	.db #0x29	; 41
	.db #0x03	; 3
	.db #0x32	; 50	'2'
	.db #0x30	; 48	'0'
	.db #0x03	; 3
	.db #0x32	; 50	'2'
	.db #0x35	; 53	'5'
	.db #0x03	; 3
	.db #0x32	; 50	'2'
	.db #0x30	; 48	'0'
	.db #0x03	; 3
	.db #0x32	; 50	'2'
	.db #0x29	; 41
	.db #0x03	; 3
	.db #0x32	; 50	'2'
	.db #0x24	; 36
	.db #0x03	; 3
	.db #0x32	; 50	'2'
_P2:
	.db #0x5a	; 90	'Z'
	.db #0x00	; 0
	.db #0x00	; 0
	.db #0x5a	; 90	'Z'
	.db #0x00	; 0
	.db #0x00	; 0
	.db #0x5a	; 90	'Z'
	.db #0x00	; 0
	.db #0x00	; 0
	.db #0x1d	; 29
	.db #0x20	; 32
	.db #0x00	; 0
	.db #0x20	; 32
	.db #0x03	; 3
	.db #0x32	; 50	'2'
	.db #0x24	; 36
	.db #0x03	; 3
	.db #0x32	; 50	'2'
	.db #0x29	; 41
	.db #0x03	; 3
	.db #0x32	; 50	'2'
	.db #0x2c	; 44
	.db #0x03	; 3
	.db #0x32	; 50	'2'
	.db #0x29	; 41
	.db #0x20	; 32
	.db #0x00	; 0
	.db #0x24	; 36
	.db #0x03	; 3
	.db #0x32	; 50	'2'
	.db #0x20	; 32
	.db #0x03	; 3
	.db #0x32	; 50	'2'
	.db #0x1d	; 29
	.db #0x03	; 3
	.db #0x32	; 50	'2'
	.db #0x20	; 32
	.db #0x20	; 32
	.db #0x00	; 0
	.db #0x24	; 36
	.db #0x03	; 3
	.db #0x32	; 50	'2'
	.db #0x29	; 41
	.db #0x03	; 3
	.db #0x32	; 50	'2'
	.db #0x2c	; 44
	.db #0x03	; 3
	.db #0x32	; 50	'2'
	.db #0x29	; 41
	.db #0x20	; 32
	.db #0x00	; 0
	.db #0x24	; 36
	.db #0x03	; 3
	.db #0x32	; 50	'2'
	.db #0x20	; 32
	.db #0x03	; 3
	.db #0x32	; 50	'2'
	.db #0x1d	; 29
	.db #0x03	; 3
	.db #0x32	; 50	'2'
	.db #0x24	; 36
	.db #0x20	; 32
	.db #0x00	; 0
	.db #0x27	; 39
	.db #0x03	; 3
	.db #0x32	; 50	'2'
	.db #0x2c	; 44
	.db #0x03	; 3
	.db #0x32	; 50	'2'
	.db #0x30	; 48	'0'
	.db #0x03	; 3
	.db #0x32	; 50	'2'
	.db #0x2c	; 44
	.db #0x20	; 32
	.db #0x00	; 0
	.db #0x27	; 39
	.db #0x03	; 3
	.db #0x32	; 50	'2'
	.db #0x24	; 36
	.db #0x03	; 3
	.db #0x32	; 50	'2'
	.db #0x20	; 32
	.db #0x03	; 3
	.db #0x32	; 50	'2'
	.db #0x24	; 36
	.db #0x20	; 32
	.db #0x00	; 0
	.db #0x27	; 39
	.db #0x03	; 3
	.db #0x32	; 50	'2'
	.db #0x2c	; 44
	.db #0x03	; 3
	.db #0x32	; 50	'2'
	.db #0x30	; 48	'0'
	.db #0x03	; 3
	.db #0x32	; 50	'2'
	.db #0x2c	; 44
	.db #0x20	; 32
	.db #0x00	; 0
	.db #0x27	; 39
	.db #0x03	; 3
	.db #0x32	; 50	'2'
	.db #0x24	; 36
	.db #0x03	; 3
	.db #0x32	; 50	'2'
	.db #0x22	; 34
	.db #0x03	; 3
	.db #0x32	; 50	'2'
	.db #0x26	; 38
	.db #0x20	; 32
	.db #0x00	; 0
	.db #0x29	; 41
	.db #0x03	; 3
	.db #0x32	; 50	'2'
	.db #0x2e	; 46
	.db #0x03	; 3
	.db #0x32	; 50	'2'
	.db #0x32	; 50	'2'
	.db #0x03	; 3
	.db #0x32	; 50	'2'
	.db #0x2e	; 46
	.db #0x20	; 32
	.db #0x00	; 0
	.db #0x29	; 41
	.db #0x03	; 3
	.db #0x32	; 50	'2'
	.db #0x26	; 38
	.db #0x03	; 3
	.db #0x32	; 50	'2'
	.db #0x22	; 34
	.db #0x03	; 3
	.db #0x32	; 50	'2'
	.db #0x26	; 38
	.db #0x20	; 32
	.db #0x00	; 0
	.db #0x29	; 41
	.db #0x03	; 3
	.db #0x32	; 50	'2'
	.db #0x2e	; 46
	.db #0x03	; 3
	.db #0x32	; 50	'2'
	.db #0x32	; 50	'2'
	.db #0x03	; 3
	.db #0x32	; 50	'2'
	.db #0x2e	; 46
	.db #0x20	; 32
	.db #0x00	; 0
	.db #0x29	; 41
	.db #0x03	; 3
	.db #0x32	; 50	'2'
	.db #0x26	; 38
	.db #0x03	; 3
	.db #0x32	; 50	'2'
	.db #0x1d	; 29
	.db #0x03	; 3
	.db #0x32	; 50	'2'
	.db #0x24	; 36
	.db #0x20	; 32
	.db #0x00	; 0
	.db #0x29	; 41
	.db #0x03	; 3
	.db #0x32	; 50	'2'
	.db #0x30	; 48	'0'
	.db #0x03	; 3
	.db #0x32	; 50	'2'
	.db #0x35	; 53	'5'
	.db #0x03	; 3
	.db #0x32	; 50	'2'
	.db #0x30	; 48	'0'
	.db #0x20	; 32
	.db #0x00	; 0
	.db #0x29	; 41
	.db #0x03	; 3
	.db #0x32	; 50	'2'
	.db #0x24	; 36
	.db #0x03	; 3
	.db #0x32	; 50	'2'
	.db #0x1d	; 29
	.db #0x03	; 3
	.db #0x32	; 50	'2'
	.db #0x24	; 36
	.db #0x20	; 32
	.db #0x00	; 0
	.db #0x29	; 41
	.db #0x03	; 3
	.db #0x32	; 50	'2'
	.db #0x30	; 48	'0'
	.db #0x03	; 3
	.db #0x32	; 50	'2'
	.db #0x35	; 53	'5'
	.db #0x03	; 3
	.db #0x32	; 50	'2'
_P3:
	.db #0x1d	; 29
	.db #0x60	; 96
	.db #0xcc	; 204
	.db #0x1d	; 29
	.db #0x70	; 112	'p'
	.db #0xcc	; 204
	.db #0x1d	; 29
	.db #0x60	; 96
	.db #0xcc	; 204
	.db #0x5a	; 90	'Z'
	.db #0x00	; 0
	.db #0xcc	; 204
	.db #0x24	; 36
	.db #0x60	; 96
	.db #0xcc	; 204
	.db #0x5a	; 90	'Z'
	.db #0x00	; 0
	.db #0xcc	; 204
	.db #0x5a	; 90	'Z'
	.db #0x00	; 0
	.db #0xcc	; 204
	.db #0x24	; 36
	.db #0x70	; 112	'p'
	.db #0xcc	; 204
	.db #0x5a	; 90	'Z'
	.db #0x00	; 0
	.db #0xcc	; 204
	.db #0x5a	; 90	'Z'
	.db #0x00	; 0
	.db #0xcc	; 204
	.db #0x1d	; 29
	.db #0x60	; 96
	.db #0xcc	; 204
	.db #0x5a	; 90	'Z'
	.db #0x00	; 0
	.db #0xcc	; 204
	.db #0x24	; 36
	.db #0x60	; 96
	.db #0xcc	; 204
	.db #0x1d	; 29
	.db #0x60	; 96
	.db #0xcc	; 204
	.db #0x29	; 41
	.db #0x60	; 96
	.db #0xcc	; 204
	.db #0x5a	; 90	'Z'
	.db #0x02	; 2
	.db #0x0a	; 10
	.db #0x27	; 39
	.db #0x60	; 96
	.db #0xcc	; 204
	.db #0x29	; 41
	.db #0x70	; 112	'p'
	.db #0xcc	; 204
	.db #0x27	; 39
	.db #0x60	; 96
	.db #0xcc	; 204
	.db #0x5a	; 90	'Z'
	.db #0x00	; 0
	.db #0xcc	; 204
	.db #0x24	; 36
	.db #0x60	; 96
	.db #0xcc	; 204
	.db #0x5a	; 90	'Z'
	.db #0x00	; 0
	.db #0xcc	; 204
	.db #0x5a	; 90	'Z'
	.db #0x00	; 0
	.db #0xcc	; 204
	.db #0x24	; 36
	.db #0x70	; 112	'p'
	.db #0xcc	; 204
	.db #0x5a	; 90	'Z'
	.db #0x00	; 0
	.db #0xcc	; 204
	.db #0x5a	; 90	'Z'
	.db #0x00	; 0
	.db #0xcc	; 204
	.db #0x1d	; 29
	.db #0x60	; 96
	.db #0xcc	; 204
	.db #0x5a	; 90	'Z'
	.db #0x00	; 0
	.db #0xcc	; 204
	.db #0x27	; 39
	.db #0x60	; 96
	.db #0xcc	; 204
	.db #0x1d	; 29
	.db #0x60	; 96
	.db #0xcc	; 204
	.db #0x29	; 41
	.db #0x60	; 96
	.db #0xcc	; 204
	.db #0x5a	; 90	'Z'
	.db #0x02	; 2
	.db #0x0a	; 10
	.db #0x26	; 38
	.db #0x60	; 96
	.db #0xcc	; 204
	.db #0x29	; 41
	.db #0x70	; 112	'p'
	.db #0xcc	; 204
	.db #0x26	; 38
	.db #0x60	; 96
	.db #0xcc	; 204
	.db #0x5a	; 90	'Z'
	.db #0x00	; 0
	.db #0xcc	; 204
	.db #0x22	; 34
	.db #0x60	; 96
	.db #0xcc	; 204
	.db #0x5a	; 90	'Z'
	.db #0x00	; 0
	.db #0xcc	; 204
	.db #0x5a	; 90	'Z'
	.db #0x00	; 0
	.db #0xcc	; 204
	.db #0x22	; 34
	.db #0x70	; 112	'p'
	.db #0xcc	; 204
	.db #0x5a	; 90	'Z'
	.db #0x00	; 0
	.db #0xcc	; 204
	.db #0x5a	; 90	'Z'
	.db #0x00	; 0
	.db #0xcc	; 204
	.db #0x26	; 38
	.db #0x60	; 96
	.db #0xcc	; 204
	.db #0x5a	; 90	'Z'
	.db #0x00	; 0
	.db #0xcc	; 204
	.db #0x5a	; 90	'Z'
	.db #0x00	; 0
	.db #0xcc	; 204
	.db #0x24	; 36
	.db #0x60	; 96
	.db #0xcc	; 204
	.db #0x22	; 34
	.db #0x60	; 96
	.db #0xcc	; 204
	.db #0x5a	; 90	'Z'
	.db #0x00	; 0
	.db #0xcc	; 204
	.db #0x24	; 36
	.db #0x60	; 96
	.db #0xcc	; 204
	.db #0x5a	; 90	'Z'
	.db #0x00	; 0
	.db #0xcc	; 204
	.db #0x5a	; 90	'Z'
	.db #0x00	; 0
	.db #0xcc	; 204
	.db #0x5a	; 90	'Z'
	.db #0x00	; 0
	.db #0xcc	; 204
	.db #0x5a	; 90	'Z'
	.db #0x00	; 0
	.db #0xcc	; 204
	.db #0x5a	; 90	'Z'
	.db #0x00	; 0
	.db #0xcc	; 204
	.db #0x5a	; 90	'Z'
	.db #0x00	; 0
	.db #0xcc	; 204
	.db #0x5a	; 90	'Z'
	.db #0x00	; 0
	.db #0xcc	; 204
	.db #0x24	; 36
	.db #0x70	; 112	'p'
	.db #0xcc	; 204
	.db #0x5a	; 90	'Z'
	.db #0x00	; 0
	.db #0xcc	; 204
	.db #0x5a	; 90	'Z'
	.db #0x00	; 0
	.db #0xcc	; 204
	.db #0x5a	; 90	'Z'
	.db #0x00	; 0
	.db #0xcc	; 204
	.db #0x5a	; 90	'Z'
	.db #0x00	; 0
	.db #0xcc	; 204
	.db #0x5a	; 90	'Z'
	.db #0x00	; 0
	.db #0xcc	; 204
	.db #0x5a	; 90	'Z'
	.db #0x00	; 0
	.db #0xcc	; 204
	.db #0x5a	; 90	'Z'
	.db #0x00	; 0
	.db #0xcc	; 204
_P4:
	.db #0x05	; 5
	.db #0x30	; 48	'0'
	.db #0x00	; 0
	.db #0x5a	; 90	'Z'
	.db #0x00	; 0
	.db #0x00	; 0
	.db #0x5a	; 90	'Z'
	.db #0x00	; 0
	.db #0x00	; 0
	.db #0x5a	; 90	'Z'
	.db #0x00	; 0
	.db #0x00	; 0
	.db #0x5a	; 90	'Z'
	.db #0x00	; 0
	.db #0x00	; 0
	.db #0x5a	; 90	'Z'
	.db #0x00	; 0
	.db #0x00	; 0
	.db #0x5a	; 90	'Z'
	.db #0x00	; 0
	.db #0x00	; 0
	.db #0x05	; 5
	.db #0x3c	; 60
	.db #0x09	; 9
	.db #0x5a	; 90	'Z'
	.db #0x00	; 0
	.db #0x00	; 0
	.db #0x05	; 5
	.db #0x3c	; 60
	.db #0x04	; 4
	.db #0x5a	; 90	'Z'
	.db #0x00	; 0
	.db #0x00	; 0
	.db #0x05	; 5
	.db #0x3c	; 60
	.db #0x00	; 0
	.db #0x11	; 17
	.db #0x30	; 48	'0'
	.db #0x00	; 0
	.db #0x11	; 17
	.db #0x3c	; 60
	.db #0x09	; 9
	.db #0x5a	; 90	'Z'
	.db #0x00	; 0
	.db #0x00	; 0
	.db #0x5a	; 90	'Z'
	.db #0x00	; 0
	.db #0x00	; 0
	.db #0x08	; 8
	.db #0x30	; 48	'0'
	.db #0x00	; 0
	.db #0x5a	; 90	'Z'
	.db #0x00	; 0
	.db #0x00	; 0
	.db #0x5a	; 90	'Z'
	.db #0x00	; 0
	.db #0x00	; 0
	.db #0x5a	; 90	'Z'
	.db #0x00	; 0
	.db #0x00	; 0
	.db #0x5a	; 90	'Z'
	.db #0x00	; 0
	.db #0x00	; 0
	.db #0x5a	; 90	'Z'
	.db #0x00	; 0
	.db #0x00	; 0
	.db #0x5a	; 90	'Z'
	.db #0x00	; 0
	.db #0x00	; 0
	.db #0x08	; 8
	.db #0x3c	; 60
	.db #0x09	; 9
	.db #0x5a	; 90	'Z'
	.db #0x00	; 0
	.db #0x00	; 0
	.db #0x08	; 8
	.db #0x3c	; 60
	.db #0x04	; 4
	.db #0x5a	; 90	'Z'
	.db #0x00	; 0
	.db #0x00	; 0
	.db #0x08	; 8
	.db #0x3c	; 60
	.db #0x00	; 0
	.db #0x14	; 20
	.db #0x30	; 48	'0'
	.db #0x00	; 0
	.db #0x14	; 20
	.db #0x3c	; 60
	.db #0x09	; 9
	.db #0x5a	; 90	'Z'
	.db #0x00	; 0
	.db #0x00	; 0
	.db #0x5a	; 90	'Z'
	.db #0x00	; 0
	.db #0x00	; 0
	.db #0x0a	; 10
	.db #0x30	; 48	'0'
	.db #0x00	; 0
	.db #0x5a	; 90	'Z'
	.db #0x00	; 0
	.db #0x00	; 0
	.db #0x5a	; 90	'Z'
	.db #0x00	; 0
	.db #0x00	; 0
	.db #0x5a	; 90	'Z'
	.db #0x00	; 0
	.db #0x00	; 0
	.db #0x5a	; 90	'Z'
	.db #0x00	; 0
	.db #0x00	; 0
	.db #0x5a	; 90	'Z'
	.db #0x00	; 0
	.db #0x00	; 0
	.db #0x5a	; 90	'Z'
	.db #0x00	; 0
	.db #0x00	; 0
	.db #0x0a	; 10
	.db #0x3c	; 60
	.db #0x09	; 9
	.db #0x5a	; 90	'Z'
	.db #0x00	; 0
	.db #0x00	; 0
	.db #0x0a	; 10
	.db #0x3c	; 60
	.db #0x04	; 4
	.db #0x5a	; 90	'Z'
	.db #0x00	; 0
	.db #0x00	; 0
	.db #0x0a	; 10
	.db #0x3c	; 60
	.db #0x00	; 0
	.db #0x0a	; 10
	.db #0x30	; 48	'0'
	.db #0x00	; 0
	.db #0x0a	; 10
	.db #0x3c	; 60
	.db #0x09	; 9
	.db #0x5a	; 90	'Z'
	.db #0x00	; 0
	.db #0x00	; 0
	.db #0x5a	; 90	'Z'
	.db #0x0c	; 12
	.db #0x04	; 4
	.db #0x14	; 20
	.db #0x30	; 48	'0'
	.db #0x00	; 0
	.db #0x5a	; 90	'Z'
	.db #0x00	; 0
	.db #0x00	; 0
	.db #0x24	; 36
	.db #0x52	; 82	'R'
	.db #0x90	; 144
	.db #0x24	; 36
	.db #0x52	; 82	'R'
	.db #0x90	; 144
	.db #0x13	; 19
	.db #0x20	; 32
	.db #0x00	; 0
	.db #0x5a	; 90	'Z'
	.db #0x00	; 0
	.db #0x00	; 0
	.db #0x24	; 36
	.db #0x52	; 82	'R'
	.db #0x90	; 144
	.db #0x0f	; 15
	.db #0x10	; 16
	.db #0x00	; 0
	.db #0x5a	; 90	'Z'
	.db #0x00	; 0
	.db #0x00	; 0
	.db #0x5a	; 90	'Z'
	.db #0x00	; 0
	.db #0x00	; 0
	.db #0x24	; 36
	.db #0x52	; 82	'R'
	.db #0x90	; 144
	.db #0x0f	; 15
	.db #0x11	; 17
	.db #0x03	; 3
	.db #0x11	; 17
	.db #0x30	; 48	'0'
	.db #0x00	; 0
	.db #0x5a	; 90	'Z'
	.db #0x00	; 0
	.db #0x00	; 0
	.db #0x5a	; 90	'Z'
	.db #0x00	; 0
	.db #0x00	; 0
	.db #0x5a	; 90	'Z'
	.db #0x00	; 0
	.db #0x00	; 0
_P5:
	.db #0x5a	; 90	'Z'
	.db #0x00	; 0
	.db #0x00	; 0
	.db #0x5a	; 90	'Z'
	.db #0x00	; 0
	.db #0x00	; 0
	.db #0x5a	; 90	'Z'
	.db #0x00	; 0
	.db #0x00	; 0
	.db #0x5a	; 90	'Z'
	.db #0x00	; 0
	.db #0x00	; 0
	.db #0x5a	; 90	'Z'
	.db #0x00	; 0
	.db #0x00	; 0
	.db #0x5a	; 90	'Z'
	.db #0x00	; 0
	.db #0x00	; 0
	.db #0x5a	; 90	'Z'
	.db #0x00	; 0
	.db #0x00	; 0
	.db #0x5a	; 90	'Z'
	.db #0x00	; 0
	.db #0x00	; 0
	.db #0x5a	; 90	'Z'
	.db #0x00	; 0
	.db #0x00	; 0
	.db #0x5a	; 90	'Z'
	.db #0x00	; 0
	.db #0x00	; 0
	.db #0x5a	; 90	'Z'
	.db #0x00	; 0
	.db #0x00	; 0
	.db #0x5a	; 90	'Z'
	.db #0x00	; 0
	.db #0x00	; 0
	.db #0x5a	; 90	'Z'
	.db #0x00	; 0
	.db #0x00	; 0
	.db #0x5a	; 90	'Z'
	.db #0x00	; 0
	.db #0x00	; 0
	.db #0x5a	; 90	'Z'
	.db #0x00	; 0
	.db #0x00	; 0
	.db #0x5a	; 90	'Z'
	.db #0x00	; 0
	.db #0x00	; 0
	.db #0x5a	; 90	'Z'
	.db #0x00	; 0
	.db #0x00	; 0
	.db #0x5a	; 90	'Z'
	.db #0x00	; 0
	.db #0x00	; 0
	.db #0x5a	; 90	'Z'
	.db #0x00	; 0
	.db #0x00	; 0
	.db #0x5a	; 90	'Z'
	.db #0x00	; 0
	.db #0x00	; 0
	.db #0x5a	; 90	'Z'
	.db #0x00	; 0
	.db #0x00	; 0
	.db #0x5a	; 90	'Z'
	.db #0x00	; 0
	.db #0x00	; 0
	.db #0x5a	; 90	'Z'
	.db #0x00	; 0
	.db #0x00	; 0
	.db #0x5a	; 90	'Z'
	.db #0x00	; 0
	.db #0x00	; 0
	.db #0x5a	; 90	'Z'
	.db #0x00	; 0
	.db #0x00	; 0
	.db #0x5a	; 90	'Z'
	.db #0x00	; 0
	.db #0x00	; 0
	.db #0x5a	; 90	'Z'
	.db #0x00	; 0
	.db #0x00	; 0
	.db #0x5a	; 90	'Z'
	.db #0x00	; 0
	.db #0x00	; 0
	.db #0x5a	; 90	'Z'
	.db #0x00	; 0
	.db #0x00	; 0
	.db #0x5a	; 90	'Z'
	.db #0x00	; 0
	.db #0x00	; 0
	.db #0x5a	; 90	'Z'
	.db #0x00	; 0
	.db #0x00	; 0
	.db #0x5a	; 90	'Z'
	.db #0x00	; 0
	.db #0x00	; 0
	.db #0x5a	; 90	'Z'
	.db #0x00	; 0
	.db #0x00	; 0
	.db #0x5a	; 90	'Z'
	.db #0x00	; 0
	.db #0x00	; 0
	.db #0x5a	; 90	'Z'
	.db #0x00	; 0
	.db #0x00	; 0
	.db #0x5a	; 90	'Z'
	.db #0x00	; 0
	.db #0x00	; 0
	.db #0x5a	; 90	'Z'
	.db #0x00	; 0
	.db #0x00	; 0
	.db #0x5a	; 90	'Z'
	.db #0x00	; 0
	.db #0x00	; 0
	.db #0x5a	; 90	'Z'
	.db #0x00	; 0
	.db #0x00	; 0
	.db #0x5a	; 90	'Z'
	.db #0x00	; 0
	.db #0x00	; 0
	.db #0x5a	; 90	'Z'
	.db #0x00	; 0
	.db #0x00	; 0
	.db #0x5a	; 90	'Z'
	.db #0x00	; 0
	.db #0x00	; 0
	.db #0x5a	; 90	'Z'
	.db #0x00	; 0
	.db #0x00	; 0
	.db #0x5a	; 90	'Z'
	.db #0x00	; 0
	.db #0x00	; 0
	.db #0x5a	; 90	'Z'
	.db #0x00	; 0
	.db #0x00	; 0
	.db #0x5a	; 90	'Z'
	.db #0x00	; 0
	.db #0x00	; 0
	.db #0x5a	; 90	'Z'
	.db #0x00	; 0
	.db #0x00	; 0
	.db #0x33	; 51	'3'
	.db #0x40	; 64
	.db #0x00	; 0
	.db #0x5a	; 90	'Z'
	.db #0x00	; 0
	.db #0x00	; 0
	.db #0x5a	; 90	'Z'
	.db #0x00	; 0
	.db #0x00	; 0
	.db #0x5a	; 90	'Z'
	.db #0x00	; 0
	.db #0x00	; 0
	.db #0x5a	; 90	'Z'
	.db #0x00	; 0
	.db #0x00	; 0
	.db #0x5a	; 90	'Z'
	.db #0x00	; 0
	.db #0x00	; 0
	.db #0x5a	; 90	'Z'
	.db #0x00	; 0
	.db #0x00	; 0
	.db #0x5a	; 90	'Z'
	.db #0x00	; 0
	.db #0x00	; 0
	.db #0x5a	; 90	'Z'
	.db #0x00	; 0
	.db #0x00	; 0
	.db #0x5a	; 90	'Z'
	.db #0x00	; 0
	.db #0x00	; 0
	.db #0x5a	; 90	'Z'
	.db #0x00	; 0
	.db #0x00	; 0
	.db #0x5a	; 90	'Z'
	.db #0x00	; 0
	.db #0x00	; 0
	.db #0x5a	; 90	'Z'
	.db #0x00	; 0
	.db #0x00	; 0
	.db #0x33	; 51	'3'
	.db #0x40	; 64
	.db #0x00	; 0
	.db #0x5a	; 90	'Z'
	.db #0x00	; 0
	.db #0x00	; 0
	.db #0x33	; 51	'3'
	.db #0x40	; 64
	.db #0x00	; 0
	.db #0x33	; 51	'3'
	.db #0x40	; 64
	.db #0x00	; 0
_P6:
	.db #0x30	; 48	'0'
	.db #0x20	; 32
	.db #0x00	; 0
	.db #0x29	; 41
	.db #0x03	; 3
	.db #0x32	; 50	'2'
	.db #0x24	; 36
	.db #0x03	; 3
	.db #0x32	; 50	'2'
	.db #0x1d	; 29
	.db #0x20	; 32
	.db #0x00	; 0
	.db #0x20	; 32
	.db #0x03	; 3
	.db #0x32	; 50	'2'
	.db #0x24	; 36
	.db #0x03	; 3
	.db #0x32	; 50	'2'
	.db #0x29	; 41
	.db #0x03	; 3
	.db #0x32	; 50	'2'
	.db #0x2c	; 44
	.db #0x03	; 3
	.db #0x32	; 50	'2'
	.db #0x29	; 41
	.db #0x20	; 32
	.db #0x00	; 0
	.db #0x24	; 36
	.db #0x03	; 3
	.db #0x32	; 50	'2'
	.db #0x20	; 32
	.db #0x03	; 3
	.db #0x32	; 50	'2'
	.db #0x1d	; 29
	.db #0x03	; 3
	.db #0x32	; 50	'2'
	.db #0x20	; 32
	.db #0x20	; 32
	.db #0x00	; 0
	.db #0x24	; 36
	.db #0x03	; 3
	.db #0x32	; 50	'2'
	.db #0x29	; 41
	.db #0x03	; 3
	.db #0x32	; 50	'2'
	.db #0x2c	; 44
	.db #0x03	; 3
	.db #0x32	; 50	'2'
	.db #0x29	; 41
	.db #0x20	; 32
	.db #0x00	; 0
	.db #0x24	; 36
	.db #0x03	; 3
	.db #0x32	; 50	'2'
	.db #0x20	; 32
	.db #0x03	; 3
	.db #0x32	; 50	'2'
	.db #0x1d	; 29
	.db #0x03	; 3
	.db #0x32	; 50	'2'
	.db #0x24	; 36
	.db #0x20	; 32
	.db #0x00	; 0
	.db #0x27	; 39
	.db #0x03	; 3
	.db #0x32	; 50	'2'
	.db #0x2c	; 44
	.db #0x03	; 3
	.db #0x32	; 50	'2'
	.db #0x30	; 48	'0'
	.db #0x03	; 3
	.db #0x32	; 50	'2'
	.db #0x2c	; 44
	.db #0x20	; 32
	.db #0x00	; 0
	.db #0x27	; 39
	.db #0x03	; 3
	.db #0x32	; 50	'2'
	.db #0x24	; 36
	.db #0x03	; 3
	.db #0x32	; 50	'2'
	.db #0x20	; 32
	.db #0x03	; 3
	.db #0x32	; 50	'2'
	.db #0x24	; 36
	.db #0x20	; 32
	.db #0x00	; 0
	.db #0x27	; 39
	.db #0x03	; 3
	.db #0x32	; 50	'2'
	.db #0x2c	; 44
	.db #0x03	; 3
	.db #0x32	; 50	'2'
	.db #0x30	; 48	'0'
	.db #0x03	; 3
	.db #0x32	; 50	'2'
	.db #0x2c	; 44
	.db #0x20	; 32
	.db #0x00	; 0
	.db #0x27	; 39
	.db #0x03	; 3
	.db #0x32	; 50	'2'
	.db #0x24	; 36
	.db #0x03	; 3
	.db #0x32	; 50	'2'
	.db #0x22	; 34
	.db #0x03	; 3
	.db #0x32	; 50	'2'
	.db #0x26	; 38
	.db #0x20	; 32
	.db #0x00	; 0
	.db #0x29	; 41
	.db #0x03	; 3
	.db #0x32	; 50	'2'
	.db #0x2e	; 46
	.db #0x03	; 3
	.db #0x32	; 50	'2'
	.db #0x32	; 50	'2'
	.db #0x03	; 3
	.db #0x32	; 50	'2'
	.db #0x2e	; 46
	.db #0x20	; 32
	.db #0x00	; 0
	.db #0x29	; 41
	.db #0x03	; 3
	.db #0x32	; 50	'2'
	.db #0x26	; 38
	.db #0x03	; 3
	.db #0x32	; 50	'2'
	.db #0x22	; 34
	.db #0x03	; 3
	.db #0x32	; 50	'2'
	.db #0x26	; 38
	.db #0x20	; 32
	.db #0x00	; 0
	.db #0x29	; 41
	.db #0x03	; 3
	.db #0x32	; 50	'2'
	.db #0x2e	; 46
	.db #0x03	; 3
	.db #0x32	; 50	'2'
	.db #0x32	; 50	'2'
	.db #0x03	; 3
	.db #0x32	; 50	'2'
	.db #0x2e	; 46
	.db #0x20	; 32
	.db #0x00	; 0
	.db #0x29	; 41
	.db #0x03	; 3
	.db #0x32	; 50	'2'
	.db #0x26	; 38
	.db #0x03	; 3
	.db #0x32	; 50	'2'
	.db #0x1d	; 29
	.db #0x03	; 3
	.db #0x32	; 50	'2'
	.db #0x24	; 36
	.db #0x20	; 32
	.db #0x00	; 0
	.db #0x29	; 41
	.db #0x03	; 3
	.db #0x32	; 50	'2'
	.db #0x30	; 48	'0'
	.db #0x03	; 3
	.db #0x32	; 50	'2'
	.db #0x35	; 53	'5'
	.db #0x03	; 3
	.db #0x32	; 50	'2'
	.db #0x30	; 48	'0'
	.db #0x20	; 32
	.db #0x00	; 0
	.db #0x29	; 41
	.db #0x03	; 3
	.db #0x32	; 50	'2'
	.db #0x29	; 41
	.db #0x10	; 16
	.db #0xcc	; 204
	.db #0x29	; 41
	.db #0x20	; 32
	.db #0xcc	; 204
	.db #0x5a	; 90	'Z'
	.db #0x00	; 0
	.db #0xcc	; 204
	.db #0x29	; 41
	.db #0x10	; 16
	.db #0xcc	; 204
	.db #0x29	; 41
	.db #0x20	; 32
	.db #0xcc	; 204
	.db #0x5a	; 90	'Z'
	.db #0x00	; 0
	.db #0xcc	; 204
_P7:
	.db #0x1d	; 29
	.db #0x10	; 16
	.db #0x00	; 0
	.db #0x20	; 32
	.db #0x03	; 3
	.db #0x32	; 50	'2'
	.db #0x24	; 36
	.db #0x03	; 3
	.db #0x32	; 50	'2'
	.db #0x29	; 41
	.db #0x03	; 3
	.db #0x32	; 50	'2'
	.db #0x2c	; 44
	.db #0x03	; 3
	.db #0x32	; 50	'2'
	.db #0x29	; 41
	.db #0x03	; 3
	.db #0x32	; 50	'2'
	.db #0x24	; 36
	.db #0x03	; 3
	.db #0x32	; 50	'2'
	.db #0x20	; 32
	.db #0x03	; 3
	.db #0x32	; 50	'2'
	.db #0x1d	; 29
	.db #0x03	; 3
	.db #0x32	; 50	'2'
	.db #0x20	; 32
	.db #0x03	; 3
	.db #0x32	; 50	'2'
	.db #0x24	; 36
	.db #0x03	; 3
	.db #0x32	; 50	'2'
	.db #0x29	; 41
	.db #0x03	; 3
	.db #0x32	; 50	'2'
	.db #0x2c	; 44
	.db #0x03	; 3
	.db #0x32	; 50	'2'
	.db #0x29	; 41
	.db #0x03	; 3
	.db #0x32	; 50	'2'
	.db #0x24	; 36
	.db #0x03	; 3
	.db #0x32	; 50	'2'
	.db #0x20	; 32
	.db #0x03	; 3
	.db #0x32	; 50	'2'
	.db #0x1d	; 29
	.db #0x03	; 3
	.db #0x32	; 50	'2'
	.db #0x24	; 36
	.db #0x03	; 3
	.db #0x32	; 50	'2'
	.db #0x27	; 39
	.db #0x03	; 3
	.db #0x32	; 50	'2'
	.db #0x2c	; 44
	.db #0x03	; 3
	.db #0x32	; 50	'2'
	.db #0x30	; 48	'0'
	.db #0x03	; 3
	.db #0x32	; 50	'2'
	.db #0x2c	; 44
	.db #0x03	; 3
	.db #0x32	; 50	'2'
	.db #0x27	; 39
	.db #0x03	; 3
	.db #0x32	; 50	'2'
	.db #0x24	; 36
	.db #0x03	; 3
	.db #0x32	; 50	'2'
	.db #0x20	; 32
	.db #0x03	; 3
	.db #0x32	; 50	'2'
	.db #0x24	; 36
	.db #0x03	; 3
	.db #0x32	; 50	'2'
	.db #0x27	; 39
	.db #0x03	; 3
	.db #0x32	; 50	'2'
	.db #0x2c	; 44
	.db #0x03	; 3
	.db #0x32	; 50	'2'
	.db #0x30	; 48	'0'
	.db #0x03	; 3
	.db #0x32	; 50	'2'
	.db #0x2c	; 44
	.db #0x03	; 3
	.db #0x32	; 50	'2'
	.db #0x27	; 39
	.db #0x03	; 3
	.db #0x32	; 50	'2'
	.db #0x24	; 36
	.db #0x03	; 3
	.db #0x32	; 50	'2'
	.db #0x22	; 34
	.db #0x03	; 3
	.db #0x32	; 50	'2'
	.db #0x26	; 38
	.db #0x03	; 3
	.db #0x32	; 50	'2'
	.db #0x29	; 41
	.db #0x03	; 3
	.db #0x32	; 50	'2'
	.db #0x2e	; 46
	.db #0x03	; 3
	.db #0x32	; 50	'2'
	.db #0x32	; 50	'2'
	.db #0x03	; 3
	.db #0x32	; 50	'2'
	.db #0x2e	; 46
	.db #0x03	; 3
	.db #0x32	; 50	'2'
	.db #0x29	; 41
	.db #0x03	; 3
	.db #0x32	; 50	'2'
	.db #0x26	; 38
	.db #0x03	; 3
	.db #0x32	; 50	'2'
	.db #0x22	; 34
	.db #0x03	; 3
	.db #0x32	; 50	'2'
	.db #0x26	; 38
	.db #0x03	; 3
	.db #0x32	; 50	'2'
	.db #0x29	; 41
	.db #0x03	; 3
	.db #0x32	; 50	'2'
	.db #0x2e	; 46
	.db #0x03	; 3
	.db #0x32	; 50	'2'
	.db #0x32	; 50	'2'
	.db #0x03	; 3
	.db #0x32	; 50	'2'
	.db #0x2e	; 46
	.db #0x03	; 3
	.db #0x32	; 50	'2'
	.db #0x29	; 41
	.db #0x03	; 3
	.db #0x32	; 50	'2'
	.db #0x26	; 38
	.db #0x03	; 3
	.db #0x32	; 50	'2'
	.db #0x1d	; 29
	.db #0x03	; 3
	.db #0x32	; 50	'2'
	.db #0x24	; 36
	.db #0x03	; 3
	.db #0x32	; 50	'2'
	.db #0x29	; 41
	.db #0x03	; 3
	.db #0x32	; 50	'2'
	.db #0x30	; 48	'0'
	.db #0x03	; 3
	.db #0x32	; 50	'2'
	.db #0x35	; 53	'5'
	.db #0x03	; 3
	.db #0x32	; 50	'2'
	.db #0x30	; 48	'0'
	.db #0x03	; 3
	.db #0x32	; 50	'2'
	.db #0x29	; 41
	.db #0x03	; 3
	.db #0x32	; 50	'2'
	.db #0x24	; 36
	.db #0x03	; 3
	.db #0x32	; 50	'2'
	.db #0x1d	; 29
	.db #0x03	; 3
	.db #0x32	; 50	'2'
	.db #0x24	; 36
	.db #0x03	; 3
	.db #0x32	; 50	'2'
	.db #0x29	; 41
	.db #0x03	; 3
	.db #0x32	; 50	'2'
	.db #0x30	; 48	'0'
	.db #0x03	; 3
	.db #0x32	; 50	'2'
	.db #0x35	; 53	'5'
	.db #0x10	; 16
	.db #0x00	; 0
	.db #0x30	; 48	'0'
	.db #0x13	; 19
	.db #0x03	; 3
	.db #0x5a	; 90	'Z'
	.db #0x03	; 3
	.db #0x03	; 3
	.db #0x5a	; 90	'Z'
	.db #0x03	; 3
	.db #0x03	; 3
_P8:
	.db #0x24	; 36
	.db #0x52	; 82	'R'
	.db #0x90	; 144
	.db #0x05	; 5
	.db #0x30	; 48	'0'
	.db #0x00	; 0
	.db #0x11	; 17
	.db #0x30	; 48	'0'
	.db #0x00	; 0
	.db #0x5a	; 90	'Z'
	.db #0x00	; 0
	.db #0x00	; 0
	.db #0x24	; 36
	.db #0x52	; 82	'R'
	.db #0x90	; 144
	.db #0x05	; 5
	.db #0x30	; 48	'0'
	.db #0x00	; 0
	.db #0x11	; 17
	.db #0x30	; 48	'0'
	.db #0x00	; 0
	.db #0x5a	; 90	'Z'
	.db #0x00	; 0
	.db #0x00	; 0
	.db #0x24	; 36
	.db #0x52	; 82	'R'
	.db #0x90	; 144
	.db #0x05	; 5
	.db #0x30	; 48	'0'
	.db #0x00	; 0
	.db #0x11	; 17
	.db #0x30	; 48	'0'
	.db #0x00	; 0
	.db #0x5a	; 90	'Z'
	.db #0x00	; 0
	.db #0x00	; 0
	.db #0x24	; 36
	.db #0x52	; 82	'R'
	.db #0x90	; 144
	.db #0x05	; 5
	.db #0x30	; 48	'0'
	.db #0x00	; 0
	.db #0x11	; 17
	.db #0x30	; 48	'0'
	.db #0x00	; 0
	.db #0x5a	; 90	'Z'
	.db #0x00	; 0
	.db #0x00	; 0
	.db #0x24	; 36
	.db #0x52	; 82	'R'
	.db #0x90	; 144
	.db #0x08	; 8
	.db #0x30	; 48	'0'
	.db #0x00	; 0
	.db #0x14	; 20
	.db #0x30	; 48	'0'
	.db #0x00	; 0
	.db #0x5a	; 90	'Z'
	.db #0x00	; 0
	.db #0x00	; 0
	.db #0x24	; 36
	.db #0x52	; 82	'R'
	.db #0x90	; 144
	.db #0x08	; 8
	.db #0x30	; 48	'0'
	.db #0x00	; 0
	.db #0x14	; 20
	.db #0x30	; 48	'0'
	.db #0x00	; 0
	.db #0x5a	; 90	'Z'
	.db #0x00	; 0
	.db #0x00	; 0
	.db #0x24	; 36
	.db #0x52	; 82	'R'
	.db #0x90	; 144
	.db #0x08	; 8
	.db #0x30	; 48	'0'
	.db #0x00	; 0
	.db #0x14	; 20
	.db #0x30	; 48	'0'
	.db #0x00	; 0
	.db #0x5a	; 90	'Z'
	.db #0x00	; 0
	.db #0x00	; 0
	.db #0x24	; 36
	.db #0x52	; 82	'R'
	.db #0x90	; 144
	.db #0x08	; 8
	.db #0x30	; 48	'0'
	.db #0x00	; 0
	.db #0x14	; 20
	.db #0x30	; 48	'0'
	.db #0x00	; 0
	.db #0x5a	; 90	'Z'
	.db #0x00	; 0
	.db #0x00	; 0
	.db #0x24	; 36
	.db #0x52	; 82	'R'
	.db #0x90	; 144
	.db #0x0a	; 10
	.db #0x30	; 48	'0'
	.db #0x00	; 0
	.db #0x16	; 22
	.db #0x30	; 48	'0'
	.db #0x00	; 0
	.db #0x5a	; 90	'Z'
	.db #0x00	; 0
	.db #0x00	; 0
	.db #0x24	; 36
	.db #0x52	; 82	'R'
	.db #0x90	; 144
	.db #0x0a	; 10
	.db #0x30	; 48	'0'
	.db #0x00	; 0
	.db #0x16	; 22
	.db #0x30	; 48	'0'
	.db #0x00	; 0
	.db #0x5a	; 90	'Z'
	.db #0x00	; 0
	.db #0x00	; 0
	.db #0x24	; 36
	.db #0x52	; 82	'R'
	.db #0x90	; 144
	.db #0x0a	; 10
	.db #0x30	; 48	'0'
	.db #0x00	; 0
	.db #0x16	; 22
	.db #0x30	; 48	'0'
	.db #0x00	; 0
	.db #0x5a	; 90	'Z'
	.db #0x00	; 0
	.db #0x00	; 0
	.db #0x24	; 36
	.db #0x52	; 82	'R'
	.db #0x90	; 144
	.db #0x0a	; 10
	.db #0x30	; 48	'0'
	.db #0x00	; 0
	.db #0x16	; 22
	.db #0x30	; 48	'0'
	.db #0x00	; 0
	.db #0x5a	; 90	'Z'
	.db #0x00	; 0
	.db #0x00	; 0
	.db #0x24	; 36
	.db #0x52	; 82	'R'
	.db #0x90	; 144
	.db #0x05	; 5
	.db #0x30	; 48	'0'
	.db #0x00	; 0
	.db #0x11	; 17
	.db #0x30	; 48	'0'
	.db #0x00	; 0
	.db #0x5a	; 90	'Z'
	.db #0x00	; 0
	.db #0x00	; 0
	.db #0x24	; 36
	.db #0x52	; 82	'R'
	.db #0x90	; 144
	.db #0x05	; 5
	.db #0x30	; 48	'0'
	.db #0x00	; 0
	.db #0x11	; 17
	.db #0x30	; 48	'0'
	.db #0x00	; 0
	.db #0x5a	; 90	'Z'
	.db #0x00	; 0
	.db #0x00	; 0
	.db #0x24	; 36
	.db #0x52	; 82	'R'
	.db #0x90	; 144
	.db #0x05	; 5
	.db #0x30	; 48	'0'
	.db #0x00	; 0
	.db #0x11	; 17
	.db #0x30	; 48	'0'
	.db #0x00	; 0
	.db #0x5a	; 90	'Z'
	.db #0x00	; 0
	.db #0x00	; 0
	.db #0x24	; 36
	.db #0x52	; 82	'R'
	.db #0x90	; 144
	.db #0x05	; 5
	.db #0x30	; 48	'0'
	.db #0x00	; 0
	.db #0x11	; 17
	.db #0x30	; 48	'0'
	.db #0x00	; 0
	.db #0x5a	; 90	'Z'
	.db #0x00	; 0
	.db #0x00	; 0
_P9:
	.db #0x37	; 55	'7'
	.db #0x90	; 144
	.db #0x00	; 0
	.db #0x5a	; 90	'Z'
	.db #0x00	; 0
	.db #0x00	; 0
	.db #0x37	; 55	'7'
	.db #0x80	; 128
	.db #0x00	; 0
	.db #0x37	; 55	'7'
	.db #0x80	; 128
	.db #0x00	; 0
	.db #0x33	; 51	'3'
	.db #0x40	; 64
	.db #0x00	; 0
	.db #0x5a	; 90	'Z'
	.db #0x00	; 0
	.db #0x00	; 0
	.db #0x37	; 55	'7'
	.db #0x80	; 128
	.db #0x00	; 0
	.db #0x37	; 55	'7'
	.db #0x80	; 128
	.db #0x00	; 0
	.db #0x37	; 55	'7'
	.db #0x90	; 144
	.db #0x00	; 0
	.db #0x5a	; 90	'Z'
	.db #0x00	; 0
	.db #0x00	; 0
	.db #0x37	; 55	'7'
	.db #0x80	; 128
	.db #0x00	; 0
	.db #0x37	; 55	'7'
	.db #0x80	; 128
	.db #0x00	; 0
	.db #0x33	; 51	'3'
	.db #0x40	; 64
	.db #0x00	; 0
	.db #0x5a	; 90	'Z'
	.db #0x00	; 0
	.db #0x00	; 0
	.db #0x37	; 55	'7'
	.db #0x80	; 128
	.db #0x00	; 0
	.db #0x37	; 55	'7'
	.db #0x80	; 128
	.db #0x00	; 0
	.db #0x37	; 55	'7'
	.db #0x90	; 144
	.db #0x00	; 0
	.db #0x5a	; 90	'Z'
	.db #0x00	; 0
	.db #0x00	; 0
	.db #0x37	; 55	'7'
	.db #0x80	; 128
	.db #0x00	; 0
	.db #0x37	; 55	'7'
	.db #0x80	; 128
	.db #0x00	; 0
	.db #0x33	; 51	'3'
	.db #0x40	; 64
	.db #0x00	; 0
	.db #0x5a	; 90	'Z'
	.db #0x00	; 0
	.db #0x00	; 0
	.db #0x37	; 55	'7'
	.db #0x80	; 128
	.db #0x00	; 0
	.db #0x37	; 55	'7'
	.db #0x80	; 128
	.db #0x00	; 0
	.db #0x37	; 55	'7'
	.db #0x90	; 144
	.db #0x00	; 0
	.db #0x5a	; 90	'Z'
	.db #0x00	; 0
	.db #0x00	; 0
	.db #0x37	; 55	'7'
	.db #0x80	; 128
	.db #0x00	; 0
	.db #0x37	; 55	'7'
	.db #0x80	; 128
	.db #0x00	; 0
	.db #0x33	; 51	'3'
	.db #0x40	; 64
	.db #0x00	; 0
	.db #0x5a	; 90	'Z'
	.db #0x00	; 0
	.db #0x00	; 0
	.db #0x37	; 55	'7'
	.db #0x80	; 128
	.db #0x00	; 0
	.db #0x37	; 55	'7'
	.db #0x80	; 128
	.db #0x00	; 0
	.db #0x37	; 55	'7'
	.db #0x90	; 144
	.db #0x00	; 0
	.db #0x5a	; 90	'Z'
	.db #0x00	; 0
	.db #0x00	; 0
	.db #0x37	; 55	'7'
	.db #0x80	; 128
	.db #0x00	; 0
	.db #0x37	; 55	'7'
	.db #0x80	; 128
	.db #0x00	; 0
	.db #0x33	; 51	'3'
	.db #0x40	; 64
	.db #0x00	; 0
	.db #0x5a	; 90	'Z'
	.db #0x00	; 0
	.db #0x00	; 0
	.db #0x37	; 55	'7'
	.db #0x80	; 128
	.db #0x00	; 0
	.db #0x37	; 55	'7'
	.db #0x80	; 128
	.db #0x00	; 0
	.db #0x37	; 55	'7'
	.db #0x90	; 144
	.db #0x00	; 0
	.db #0x5a	; 90	'Z'
	.db #0x00	; 0
	.db #0x00	; 0
	.db #0x37	; 55	'7'
	.db #0x80	; 128
	.db #0x00	; 0
	.db #0x37	; 55	'7'
	.db #0x80	; 128
	.db #0x00	; 0
	.db #0x33	; 51	'3'
	.db #0x40	; 64
	.db #0x00	; 0
	.db #0x5a	; 90	'Z'
	.db #0x00	; 0
	.db #0x00	; 0
	.db #0x37	; 55	'7'
	.db #0x80	; 128
	.db #0x00	; 0
	.db #0x37	; 55	'7'
	.db #0x80	; 128
	.db #0x00	; 0
	.db #0x37	; 55	'7'
	.db #0x90	; 144
	.db #0x00	; 0
	.db #0x5a	; 90	'Z'
	.db #0x00	; 0
	.db #0x00	; 0
	.db #0x37	; 55	'7'
	.db #0x80	; 128
	.db #0x00	; 0
	.db #0x37	; 55	'7'
	.db #0x80	; 128
	.db #0x00	; 0
	.db #0x33	; 51	'3'
	.db #0x40	; 64
	.db #0x00	; 0
	.db #0x5a	; 90	'Z'
	.db #0x00	; 0
	.db #0x00	; 0
	.db #0x37	; 55	'7'
	.db #0x80	; 128
	.db #0x00	; 0
	.db #0x37	; 55	'7'
	.db #0x80	; 128
	.db #0x00	; 0
	.db #0x37	; 55	'7'
	.db #0x90	; 144
	.db #0x00	; 0
	.db #0x5a	; 90	'Z'
	.db #0x00	; 0
	.db #0x00	; 0
	.db #0x37	; 55	'7'
	.db #0x80	; 128
	.db #0x00	; 0
	.db #0x37	; 55	'7'
	.db #0x80	; 128
	.db #0x00	; 0
	.db #0x33	; 51	'3'
	.db #0x40	; 64
	.db #0x00	; 0
	.db #0x5a	; 90	'Z'
	.db #0x00	; 0
	.db #0x00	; 0
	.db #0x33	; 51	'3'
	.db #0x40	; 64
	.db #0x00	; 0
	.db #0x33	; 51	'3'
	.db #0x40	; 64
	.db #0x00	; 0
_P10:
	.db #0x1d	; 29
	.db #0x10	; 16
	.db #0x00	; 0
	.db #0x20	; 32
	.db #0x03	; 3
	.db #0x32	; 50	'2'
	.db #0x24	; 36
	.db #0x03	; 3
	.db #0x32	; 50	'2'
	.db #0x29	; 41
	.db #0x03	; 3
	.db #0x32	; 50	'2'
	.db #0x2c	; 44
	.db #0x10	; 16
	.db #0x00	; 0
	.db #0x29	; 41
	.db #0x03	; 3
	.db #0x32	; 50	'2'
	.db #0x24	; 36
	.db #0x03	; 3
	.db #0x32	; 50	'2'
	.db #0x20	; 32
	.db #0x03	; 3
	.db #0x32	; 50	'2'
	.db #0x1d	; 29
	.db #0x10	; 16
	.db #0x00	; 0
	.db #0x20	; 32
	.db #0x03	; 3
	.db #0x32	; 50	'2'
	.db #0x24	; 36
	.db #0x03	; 3
	.db #0x32	; 50	'2'
	.db #0x29	; 41
	.db #0x03	; 3
	.db #0x32	; 50	'2'
	.db #0x2c	; 44
	.db #0x10	; 16
	.db #0x00	; 0
	.db #0x29	; 41
	.db #0x03	; 3
	.db #0x32	; 50	'2'
	.db #0x24	; 36
	.db #0x03	; 3
	.db #0x32	; 50	'2'
	.db #0x20	; 32
	.db #0x03	; 3
	.db #0x32	; 50	'2'
	.db #0x1d	; 29
	.db #0x10	; 16
	.db #0x00	; 0
	.db #0x24	; 36
	.db #0x03	; 3
	.db #0x32	; 50	'2'
	.db #0x27	; 39
	.db #0x03	; 3
	.db #0x32	; 50	'2'
	.db #0x2c	; 44
	.db #0x03	; 3
	.db #0x32	; 50	'2'
	.db #0x30	; 48	'0'
	.db #0x03	; 3
	.db #0x32	; 50	'2'
	.db #0x2c	; 44
	.db #0x10	; 16
	.db #0x00	; 0
	.db #0x27	; 39
	.db #0x03	; 3
	.db #0x32	; 50	'2'
	.db #0x24	; 36
	.db #0x03	; 3
	.db #0x32	; 50	'2'
	.db #0x20	; 32
	.db #0x10	; 16
	.db #0x00	; 0
	.db #0x24	; 36
	.db #0x03	; 3
	.db #0x32	; 50	'2'
	.db #0x27	; 39
	.db #0x03	; 3
	.db #0x32	; 50	'2'
	.db #0x2c	; 44
	.db #0x03	; 3
	.db #0x32	; 50	'2'
	.db #0x30	; 48	'0'
	.db #0x10	; 16
	.db #0x00	; 0
	.db #0x2c	; 44
	.db #0x03	; 3
	.db #0x32	; 50	'2'
	.db #0x27	; 39
	.db #0x03	; 3
	.db #0x32	; 50	'2'
	.db #0x24	; 36
	.db #0x03	; 3
	.db #0x32	; 50	'2'
	.db #0x22	; 34
	.db #0x10	; 16
	.db #0x00	; 0
	.db #0x26	; 38
	.db #0x03	; 3
	.db #0x32	; 50	'2'
	.db #0x29	; 41
	.db #0x03	; 3
	.db #0x32	; 50	'2'
	.db #0x2e	; 46
	.db #0x03	; 3
	.db #0x32	; 50	'2'
	.db #0x32	; 50	'2'
	.db #0x10	; 16
	.db #0x00	; 0
	.db #0x2e	; 46
	.db #0x03	; 3
	.db #0x32	; 50	'2'
	.db #0x29	; 41
	.db #0x03	; 3
	.db #0x32	; 50	'2'
	.db #0x26	; 38
	.db #0x03	; 3
	.db #0x32	; 50	'2'
	.db #0x22	; 34
	.db #0x10	; 16
	.db #0x00	; 0
	.db #0x26	; 38
	.db #0x03	; 3
	.db #0x32	; 50	'2'
	.db #0x29	; 41
	.db #0x03	; 3
	.db #0x32	; 50	'2'
	.db #0x2e	; 46
	.db #0x03	; 3
	.db #0x32	; 50	'2'
	.db #0x32	; 50	'2'
	.db #0x10	; 16
	.db #0x00	; 0
	.db #0x2e	; 46
	.db #0x03	; 3
	.db #0x32	; 50	'2'
	.db #0x29	; 41
	.db #0x03	; 3
	.db #0x32	; 50	'2'
	.db #0x26	; 38
	.db #0x03	; 3
	.db #0x32	; 50	'2'
	.db #0x1d	; 29
	.db #0x10	; 16
	.db #0x00	; 0
	.db #0x24	; 36
	.db #0x03	; 3
	.db #0x32	; 50	'2'
	.db #0x29	; 41
	.db #0x03	; 3
	.db #0x32	; 50	'2'
	.db #0x30	; 48	'0'
	.db #0x03	; 3
	.db #0x32	; 50	'2'
	.db #0x35	; 53	'5'
	.db #0x10	; 16
	.db #0x00	; 0
	.db #0x30	; 48	'0'
	.db #0x03	; 3
	.db #0x32	; 50	'2'
	.db #0x29	; 41
	.db #0x03	; 3
	.db #0x32	; 50	'2'
	.db #0x24	; 36
	.db #0x03	; 3
	.db #0x32	; 50	'2'
	.db #0x1d	; 29
	.db #0x10	; 16
	.db #0x00	; 0
	.db #0x24	; 36
	.db #0x03	; 3
	.db #0x32	; 50	'2'
	.db #0x29	; 41
	.db #0x03	; 3
	.db #0x32	; 50	'2'
	.db #0x30	; 48	'0'
	.db #0x03	; 3
	.db #0x32	; 50	'2'
	.db #0x35	; 53	'5'
	.db #0x10	; 16
	.db #0x00	; 0
	.db #0x30	; 48	'0'
	.db #0x03	; 3
	.db #0x32	; 50	'2'
	.db #0x29	; 41
	.db #0x03	; 3
	.db #0x32	; 50	'2'
	.db #0x24	; 36
	.db #0x03	; 3
	.db #0x32	; 50	'2'
_P11:
	.db #0x1d	; 29
	.db #0x10	; 16
	.db #0x00	; 0
	.db #0x20	; 32
	.db #0x03	; 3
	.db #0x32	; 50	'2'
	.db #0x24	; 36
	.db #0x03	; 3
	.db #0x32	; 50	'2'
	.db #0x29	; 41
	.db #0x03	; 3
	.db #0x32	; 50	'2'
	.db #0x2c	; 44
	.db #0x10	; 16
	.db #0x00	; 0
	.db #0x29	; 41
	.db #0x03	; 3
	.db #0x32	; 50	'2'
	.db #0x24	; 36
	.db #0x03	; 3
	.db #0x32	; 50	'2'
	.db #0x20	; 32
	.db #0x03	; 3
	.db #0x32	; 50	'2'
	.db #0x1d	; 29
	.db #0x10	; 16
	.db #0x00	; 0
	.db #0x20	; 32
	.db #0x03	; 3
	.db #0x32	; 50	'2'
	.db #0x24	; 36
	.db #0x03	; 3
	.db #0x32	; 50	'2'
	.db #0x29	; 41
	.db #0x03	; 3
	.db #0x32	; 50	'2'
	.db #0x2c	; 44
	.db #0x10	; 16
	.db #0x00	; 0
	.db #0x29	; 41
	.db #0x03	; 3
	.db #0x32	; 50	'2'
	.db #0x24	; 36
	.db #0x03	; 3
	.db #0x32	; 50	'2'
	.db #0x20	; 32
	.db #0x03	; 3
	.db #0x32	; 50	'2'
	.db #0x1d	; 29
	.db #0x10	; 16
	.db #0x00	; 0
	.db #0x24	; 36
	.db #0x03	; 3
	.db #0x32	; 50	'2'
	.db #0x27	; 39
	.db #0x03	; 3
	.db #0x32	; 50	'2'
	.db #0x2c	; 44
	.db #0x03	; 3
	.db #0x32	; 50	'2'
	.db #0x30	; 48	'0'
	.db #0x03	; 3
	.db #0x32	; 50	'2'
	.db #0x2c	; 44
	.db #0x10	; 16
	.db #0x00	; 0
	.db #0x27	; 39
	.db #0x03	; 3
	.db #0x32	; 50	'2'
	.db #0x24	; 36
	.db #0x03	; 3
	.db #0x32	; 50	'2'
	.db #0x20	; 32
	.db #0x10	; 16
	.db #0x00	; 0
	.db #0x24	; 36
	.db #0x03	; 3
	.db #0x32	; 50	'2'
	.db #0x27	; 39
	.db #0x03	; 3
	.db #0x32	; 50	'2'
	.db #0x2c	; 44
	.db #0x03	; 3
	.db #0x32	; 50	'2'
	.db #0x30	; 48	'0'
	.db #0x10	; 16
	.db #0x00	; 0
	.db #0x2c	; 44
	.db #0x03	; 3
	.db #0x32	; 50	'2'
	.db #0x27	; 39
	.db #0x03	; 3
	.db #0x32	; 50	'2'
	.db #0x24	; 36
	.db #0x03	; 3
	.db #0x32	; 50	'2'
	.db #0x26	; 38
	.db #0x60	; 96
	.db #0xcc	; 204
	.db #0x29	; 41
	.db #0x70	; 112	'p'
	.db #0xcc	; 204
	.db #0x26	; 38
	.db #0x60	; 96
	.db #0xcc	; 204
	.db #0x5a	; 90	'Z'
	.db #0x00	; 0
	.db #0xcc	; 204
	.db #0x22	; 34
	.db #0x60	; 96
	.db #0xcc	; 204
	.db #0x5a	; 90	'Z'
	.db #0x00	; 0
	.db #0xcc	; 204
	.db #0x5a	; 90	'Z'
	.db #0x00	; 0
	.db #0xcc	; 204
	.db #0x5a	; 90	'Z'
	.db #0x00	; 0
	.db #0xcc	; 204
	.db #0x29	; 41
	.db #0x43	; 67	'C'
	.db #0x10	; 16
	.db #0x5a	; 90	'Z'
	.db #0x04	; 4
	.db #0x42	; 66	'B'
	.db #0x5a	; 90	'Z'
	.db #0x04	; 4
	.db #0x42	; 66	'B'
	.db #0x5a	; 90	'Z'
	.db #0x04	; 4
	.db #0x42	; 66	'B'
	.db #0x5a	; 90	'Z'
	.db #0x04	; 4
	.db #0x42	; 66	'B'
	.db #0x5a	; 90	'Z'
	.db #0x04	; 4
	.db #0x42	; 66	'B'
	.db #0x5a	; 90	'Z'
	.db #0x04	; 4
	.db #0x42	; 66	'B'
	.db #0x2e	; 46
	.db #0x03	; 3
	.db #0x04	; 4
	.db #0x5a	; 90	'Z'
	.db #0x03	; 3
	.db #0x04	; 4
	.db #0x5a	; 90	'Z'
	.db #0x00	; 0
	.db #0x00	; 0
	.db #0x29	; 41
	.db #0x4c	; 76	'L'
	.db #0x04	; 4
	.db #0x2c	; 44
	.db #0x40	; 64
	.db #0x00	; 0
	.db #0x2e	; 46
	.db #0x4c	; 76	'L'
	.db #0x04	; 4
	.db #0x29	; 41
	.db #0x40	; 64
	.db #0x00	; 0
	.db #0x2c	; 44
	.db #0x4c	; 76	'L'
	.db #0x04	; 4
	.db #0x27	; 39
	.db #0x40	; 64
	.db #0x00	; 0
	.db #0x26	; 38
	.db #0x40	; 64
	.db #0x00	; 0
	.db #0x27	; 39
	.db #0x4c	; 76	'L'
	.db #0x04	; 4
	.db #0x2c	; 44
	.db #0x40	; 64
	.db #0x00	; 0
	.db #0x26	; 38
	.db #0x4c	; 76	'L'
	.db #0x04	; 4
	.db #0x27	; 39
	.db #0x40	; 64
	.db #0x00	; 0
	.db #0x5a	; 90	'Z'
	.db #0x00	; 0
	.db #0x00	; 0
	.db #0x26	; 38
	.db #0x40	; 64
	.db #0x00	; 0
	.db #0x5a	; 90	'Z'
	.db #0x04	; 4
	.db #0x42	; 66	'B'
_P12:
	.db #0x24	; 36
	.db #0x52	; 82	'R'
	.db #0x90	; 144
	.db #0x05	; 5
	.db #0x30	; 48	'0'
	.db #0x00	; 0
	.db #0x11	; 17
	.db #0x30	; 48	'0'
	.db #0x00	; 0
	.db #0x5a	; 90	'Z'
	.db #0x00	; 0
	.db #0x00	; 0
	.db #0x24	; 36
	.db #0x52	; 82	'R'
	.db #0x90	; 144
	.db #0x05	; 5
	.db #0x30	; 48	'0'
	.db #0x00	; 0
	.db #0x11	; 17
	.db #0x30	; 48	'0'
	.db #0x00	; 0
	.db #0x5a	; 90	'Z'
	.db #0x00	; 0
	.db #0x00	; 0
	.db #0x24	; 36
	.db #0x52	; 82	'R'
	.db #0x90	; 144
	.db #0x05	; 5
	.db #0x30	; 48	'0'
	.db #0x00	; 0
	.db #0x11	; 17
	.db #0x30	; 48	'0'
	.db #0x00	; 0
	.db #0x5a	; 90	'Z'
	.db #0x00	; 0
	.db #0x00	; 0
	.db #0x24	; 36
	.db #0x52	; 82	'R'
	.db #0x90	; 144
	.db #0x05	; 5
	.db #0x30	; 48	'0'
	.db #0x00	; 0
	.db #0x11	; 17
	.db #0x30	; 48	'0'
	.db #0x00	; 0
	.db #0x5a	; 90	'Z'
	.db #0x00	; 0
	.db #0x00	; 0
	.db #0x24	; 36
	.db #0x52	; 82	'R'
	.db #0x90	; 144
	.db #0x08	; 8
	.db #0x30	; 48	'0'
	.db #0x00	; 0
	.db #0x14	; 20
	.db #0x30	; 48	'0'
	.db #0x00	; 0
	.db #0x5a	; 90	'Z'
	.db #0x00	; 0
	.db #0x00	; 0
	.db #0x24	; 36
	.db #0x52	; 82	'R'
	.db #0x90	; 144
	.db #0x08	; 8
	.db #0x30	; 48	'0'
	.db #0x00	; 0
	.db #0x14	; 20
	.db #0x30	; 48	'0'
	.db #0x00	; 0
	.db #0x5a	; 90	'Z'
	.db #0x00	; 0
	.db #0x00	; 0
	.db #0x24	; 36
	.db #0x52	; 82	'R'
	.db #0x90	; 144
	.db #0x08	; 8
	.db #0x30	; 48	'0'
	.db #0x00	; 0
	.db #0x14	; 20
	.db #0x30	; 48	'0'
	.db #0x00	; 0
	.db #0x5a	; 90	'Z'
	.db #0x00	; 0
	.db #0x00	; 0
	.db #0x24	; 36
	.db #0x52	; 82	'R'
	.db #0x90	; 144
	.db #0x08	; 8
	.db #0x30	; 48	'0'
	.db #0x00	; 0
	.db #0x14	; 20
	.db #0x30	; 48	'0'
	.db #0x00	; 0
	.db #0x5a	; 90	'Z'
	.db #0x00	; 0
	.db #0x00	; 0
	.db #0x24	; 36
	.db #0x52	; 82	'R'
	.db #0x90	; 144
	.db #0x0a	; 10
	.db #0x30	; 48	'0'
	.db #0x00	; 0
	.db #0x5a	; 90	'Z'
	.db #0x00	; 0
	.db #0x00	; 0
	.db #0x5a	; 90	'Z'
	.db #0x00	; 0
	.db #0x00	; 0
	.db #0x5a	; 90	'Z'
	.db #0x00	; 0
	.db #0x00	; 0
	.db #0x5a	; 90	'Z'
	.db #0x00	; 0
	.db #0x00	; 0
	.db #0x5a	; 90	'Z'
	.db #0x00	; 0
	.db #0x00	; 0
	.db #0x5a	; 90	'Z'
	.db #0x00	; 0
	.db #0x00	; 0
	.db #0x5a	; 90	'Z'
	.db #0x00	; 0
	.db #0x00	; 0
	.db #0x5a	; 90	'Z'
	.db #0x00	; 0
	.db #0x00	; 0
	.db #0x5a	; 90	'Z'
	.db #0x00	; 0
	.db #0x00	; 0
	.db #0x5a	; 90	'Z'
	.db #0x00	; 0
	.db #0x00	; 0
	.db #0x5a	; 90	'Z'
	.db #0x00	; 0
	.db #0x00	; 0
	.db #0x5a	; 90	'Z'
	.db #0x00	; 0
	.db #0x00	; 0
	.db #0x5a	; 90	'Z'
	.db #0x00	; 0
	.db #0x00	; 0
	.db #0x5a	; 90	'Z'
	.db #0x00	; 0
	.db #0x00	; 0
	.db #0x16	; 22
	.db #0x03	; 3
	.db #0x45	; 69	'E'
	.db #0x5a	; 90	'Z'
	.db #0x03	; 3
	.db #0x45	; 69	'E'
	.db #0x0a	; 10
	.db #0x30	; 48	'0'
	.db #0x00	; 0
	.db #0x5a	; 90	'Z'
	.db #0x00	; 0
	.db #0x00	; 0
	.db #0x16	; 22
	.db #0x30	; 48	'0'
	.db #0x00	; 0
	.db #0x0a	; 10
	.db #0x30	; 48	'0'
	.db #0x00	; 0
	.db #0x5a	; 90	'Z'
	.db #0x00	; 0
	.db #0x00	; 0
	.db #0x16	; 22
	.db #0x30	; 48	'0'
	.db #0x00	; 0
	.db #0x0a	; 10
	.db #0x30	; 48	'0'
	.db #0x00	; 0
	.db #0x5a	; 90	'Z'
	.db #0x00	; 0
	.db #0x00	; 0
	.db #0x16	; 22
	.db #0x30	; 48	'0'
	.db #0x00	; 0
	.db #0x0a	; 10
	.db #0x30	; 48	'0'
	.db #0x00	; 0
	.db #0x1b	; 27
	.db #0x30	; 48	'0'
	.db #0x00	; 0
	.db #0x5a	; 90	'Z'
	.db #0x04	; 4
	.db #0x42	; 66	'B'
	.db #0x5a	; 90	'Z'
	.db #0x04	; 4
	.db #0x42	; 66	'B'
	.db #0x5a	; 90	'Z'
	.db #0x04	; 4
	.db #0x42	; 66	'B'
_P13:
	.db #0x1d	; 29
	.db #0x60	; 96
	.db #0xcc	; 204
	.db #0x1d	; 29
	.db #0x70	; 112	'p'
	.db #0xcc	; 204
	.db #0x1d	; 29
	.db #0x60	; 96
	.db #0xcc	; 204
	.db #0x5a	; 90	'Z'
	.db #0x00	; 0
	.db #0xcc	; 204
	.db #0x24	; 36
	.db #0x60	; 96
	.db #0xcc	; 204
	.db #0x5a	; 90	'Z'
	.db #0x00	; 0
	.db #0xcc	; 204
	.db #0x5a	; 90	'Z'
	.db #0x00	; 0
	.db #0xcc	; 204
	.db #0x24	; 36
	.db #0x70	; 112	'p'
	.db #0xcc	; 204
	.db #0x5a	; 90	'Z'
	.db #0x00	; 0
	.db #0xcc	; 204
	.db #0x5a	; 90	'Z'
	.db #0x00	; 0
	.db #0xcc	; 204
	.db #0x1d	; 29
	.db #0x60	; 96
	.db #0xcc	; 204
	.db #0x5a	; 90	'Z'
	.db #0x00	; 0
	.db #0xcc	; 204
	.db #0x24	; 36
	.db #0x60	; 96
	.db #0xcc	; 204
	.db #0x1d	; 29
	.db #0x60	; 96
	.db #0xcc	; 204
	.db #0x29	; 41
	.db #0x60	; 96
	.db #0xcc	; 204
	.db #0x5a	; 90	'Z'
	.db #0x02	; 2
	.db #0x0a	; 10
	.db #0x27	; 39
	.db #0x60	; 96
	.db #0xcc	; 204
	.db #0x29	; 41
	.db #0x70	; 112	'p'
	.db #0xcc	; 204
	.db #0x27	; 39
	.db #0x60	; 96
	.db #0xcc	; 204
	.db #0x5a	; 90	'Z'
	.db #0x00	; 0
	.db #0xcc	; 204
	.db #0x24	; 36
	.db #0x60	; 96
	.db #0xcc	; 204
	.db #0x5a	; 90	'Z'
	.db #0x00	; 0
	.db #0xcc	; 204
	.db #0x5a	; 90	'Z'
	.db #0x00	; 0
	.db #0xcc	; 204
	.db #0x24	; 36
	.db #0x70	; 112	'p'
	.db #0xcc	; 204
	.db #0x5a	; 90	'Z'
	.db #0x00	; 0
	.db #0xcc	; 204
	.db #0x5a	; 90	'Z'
	.db #0x00	; 0
	.db #0xcc	; 204
	.db #0x1d	; 29
	.db #0x60	; 96
	.db #0xcc	; 204
	.db #0x5a	; 90	'Z'
	.db #0x00	; 0
	.db #0xcc	; 204
	.db #0x27	; 39
	.db #0x60	; 96
	.db #0xcc	; 204
	.db #0x1d	; 29
	.db #0x60	; 96
	.db #0xcc	; 204
	.db #0x29	; 41
	.db #0x60	; 96
	.db #0xcc	; 204
	.db #0x5a	; 90	'Z'
	.db #0x02	; 2
	.db #0x0a	; 10
	.db #0x22	; 34
	.db #0x60	; 96
	.db #0xcc	; 204
	.db #0x26	; 38
	.db #0x03	; 3
	.db #0x32	; 50	'2'
	.db #0x1d	; 29
	.db #0x30	; 48	'0'
	.db #0x00	; 0
	.db #0x5a	; 90	'Z'
	.db #0x01	; 1
	.db #0x02	; 2
	.db #0x29	; 41
	.db #0x03	; 3
	.db #0x10	; 16
	.db #0x5a	; 90	'Z'
	.db #0x03	; 3
	.db #0x10	; 16
	.db #0x5a	; 90	'Z'
	.db #0x04	; 4
	.db #0x42	; 66	'B'
	.db #0x5a	; 90	'Z'
	.db #0x04	; 4
	.db #0x42	; 66	'B'
	.db #0x5a	; 90	'Z'
	.db #0x04	; 4
	.db #0x42	; 66	'B'
	.db #0x5a	; 90	'Z'
	.db #0x04	; 4
	.db #0x42	; 66	'B'
	.db #0x5a	; 90	'Z'
	.db #0x04	; 4
	.db #0x42	; 66	'B'
	.db #0x5a	; 90	'Z'
	.db #0x04	; 4
	.db #0x42	; 66	'B'
	.db #0x2e	; 46
	.db #0x03	; 3
	.db #0x04	; 4
	.db #0x5a	; 90	'Z'
	.db #0x03	; 3
	.db #0x04	; 4
	.db #0x5a	; 90	'Z'
	.db #0x00	; 0
	.db #0x00	; 0
	.db #0x29	; 41
	.db #0x3c	; 60
	.db #0x04	; 4
	.db #0x2c	; 44
	.db #0x30	; 48	'0'
	.db #0x00	; 0
	.db #0x2e	; 46
	.db #0x3c	; 60
	.db #0x04	; 4
	.db #0x29	; 41
	.db #0x30	; 48	'0'
	.db #0x00	; 0
	.db #0x2c	; 44
	.db #0x3c	; 60
	.db #0x04	; 4
	.db #0x27	; 39
	.db #0x30	; 48	'0'
	.db #0x00	; 0
	.db #0x26	; 38
	.db #0x30	; 48	'0'
	.db #0x00	; 0
	.db #0x27	; 39
	.db #0x3c	; 60
	.db #0x04	; 4
	.db #0x2c	; 44
	.db #0x30	; 48	'0'
	.db #0x00	; 0
	.db #0x26	; 38
	.db #0x3c	; 60
	.db #0x04	; 4
	.db #0x27	; 39
	.db #0x30	; 48	'0'
	.db #0x00	; 0
	.db #0x5a	; 90	'Z'
	.db #0x00	; 0
	.db #0x00	; 0
	.db #0x26	; 38
	.db #0x30	; 48	'0'
	.db #0x00	; 0
	.db #0x5a	; 90	'Z'
	.db #0x04	; 4
	.db #0x42	; 66	'B'
	.db #0x5a	; 90	'Z'
	.db #0x04	; 4
	.db #0x42	; 66	'B'
	.db #0x22	; 34
	.db #0x30	; 48	'0'
	.db #0x00	; 0
	.db #0x5a	; 90	'Z'
	.db #0x04	; 4
	.db #0x42	; 66	'B'
_P14:
	.db #0x37	; 55	'7'
	.db #0x90	; 144
	.db #0x00	; 0
	.db #0x5a	; 90	'Z'
	.db #0x00	; 0
	.db #0x00	; 0
	.db #0x37	; 55	'7'
	.db #0x80	; 128
	.db #0x00	; 0
	.db #0x37	; 55	'7'
	.db #0x80	; 128
	.db #0x00	; 0
	.db #0x33	; 51	'3'
	.db #0x40	; 64
	.db #0x00	; 0
	.db #0x5a	; 90	'Z'
	.db #0x00	; 0
	.db #0x00	; 0
	.db #0x37	; 55	'7'
	.db #0x80	; 128
	.db #0x00	; 0
	.db #0x37	; 55	'7'
	.db #0x80	; 128
	.db #0x00	; 0
	.db #0x37	; 55	'7'
	.db #0x90	; 144
	.db #0x00	; 0
	.db #0x5a	; 90	'Z'
	.db #0x00	; 0
	.db #0x00	; 0
	.db #0x37	; 55	'7'
	.db #0x80	; 128
	.db #0x00	; 0
	.db #0x37	; 55	'7'
	.db #0x80	; 128
	.db #0x00	; 0
	.db #0x33	; 51	'3'
	.db #0x40	; 64
	.db #0x00	; 0
	.db #0x5a	; 90	'Z'
	.db #0x00	; 0
	.db #0x00	; 0
	.db #0x37	; 55	'7'
	.db #0x80	; 128
	.db #0x00	; 0
	.db #0x37	; 55	'7'
	.db #0x80	; 128
	.db #0x00	; 0
	.db #0x37	; 55	'7'
	.db #0x90	; 144
	.db #0x00	; 0
	.db #0x5a	; 90	'Z'
	.db #0x00	; 0
	.db #0x00	; 0
	.db #0x37	; 55	'7'
	.db #0x80	; 128
	.db #0x00	; 0
	.db #0x37	; 55	'7'
	.db #0x80	; 128
	.db #0x00	; 0
	.db #0x33	; 51	'3'
	.db #0x40	; 64
	.db #0x00	; 0
	.db #0x5a	; 90	'Z'
	.db #0x00	; 0
	.db #0x00	; 0
	.db #0x37	; 55	'7'
	.db #0x80	; 128
	.db #0x00	; 0
	.db #0x37	; 55	'7'
	.db #0x80	; 128
	.db #0x00	; 0
	.db #0x37	; 55	'7'
	.db #0x90	; 144
	.db #0x00	; 0
	.db #0x5a	; 90	'Z'
	.db #0x00	; 0
	.db #0x00	; 0
	.db #0x37	; 55	'7'
	.db #0x80	; 128
	.db #0x00	; 0
	.db #0x37	; 55	'7'
	.db #0x80	; 128
	.db #0x00	; 0
	.db #0x33	; 51	'3'
	.db #0x40	; 64
	.db #0x00	; 0
	.db #0x5a	; 90	'Z'
	.db #0x00	; 0
	.db #0x00	; 0
	.db #0x37	; 55	'7'
	.db #0x80	; 128
	.db #0x00	; 0
	.db #0x37	; 55	'7'
	.db #0x80	; 128
	.db #0x00	; 0
	.db #0x37	; 55	'7'
	.db #0x90	; 144
	.db #0x00	; 0
	.db #0x5a	; 90	'Z'
	.db #0x00	; 0
	.db #0x00	; 0
	.db #0x5a	; 90	'Z'
	.db #0x00	; 0
	.db #0x00	; 0
	.db #0x5a	; 90	'Z'
	.db #0x00	; 0
	.db #0x00	; 0
	.db #0x5a	; 90	'Z'
	.db #0x00	; 0
	.db #0x00	; 0
	.db #0x5a	; 90	'Z'
	.db #0x00	; 0
	.db #0x00	; 0
	.db #0x5a	; 90	'Z'
	.db #0x00	; 0
	.db #0x00	; 0
	.db #0x5a	; 90	'Z'
	.db #0x00	; 0
	.db #0x00	; 0
	.db #0x5a	; 90	'Z'
	.db #0x00	; 0
	.db #0x00	; 0
	.db #0x5a	; 90	'Z'
	.db #0x00	; 0
	.db #0x00	; 0
	.db #0x5a	; 90	'Z'
	.db #0x00	; 0
	.db #0x00	; 0
	.db #0x5a	; 90	'Z'
	.db #0x00	; 0
	.db #0x00	; 0
	.db #0x5a	; 90	'Z'
	.db #0x00	; 0
	.db #0x00	; 0
	.db #0x5a	; 90	'Z'
	.db #0x00	; 0
	.db #0x00	; 0
	.db #0x5a	; 90	'Z'
	.db #0x00	; 0
	.db #0x00	; 0
	.db #0x5a	; 90	'Z'
	.db #0x00	; 0
	.db #0x00	; 0
	.db #0x5a	; 90	'Z'
	.db #0x00	; 0
	.db #0x00	; 0
	.db #0x5a	; 90	'Z'
	.db #0x00	; 0
	.db #0x00	; 0
	.db #0x5a	; 90	'Z'
	.db #0x00	; 0
	.db #0x00	; 0
	.db #0x5a	; 90	'Z'
	.db #0x00	; 0
	.db #0x00	; 0
	.db #0x5a	; 90	'Z'
	.db #0x00	; 0
	.db #0x00	; 0
	.db #0x5a	; 90	'Z'
	.db #0x00	; 0
	.db #0x00	; 0
	.db #0x5a	; 90	'Z'
	.db #0x00	; 0
	.db #0x00	; 0
	.db #0x5a	; 90	'Z'
	.db #0x00	; 0
	.db #0x00	; 0
	.db #0x5a	; 90	'Z'
	.db #0x00	; 0
	.db #0x00	; 0
	.db #0x5a	; 90	'Z'
	.db #0x00	; 0
	.db #0x00	; 0
	.db #0x5a	; 90	'Z'
	.db #0x00	; 0
	.db #0x00	; 0
	.db #0x5a	; 90	'Z'
	.db #0x00	; 0
	.db #0x00	; 0
	.db #0x5a	; 90	'Z'
	.db #0x00	; 0
	.db #0x00	; 0
	.db #0x5a	; 90	'Z'
	.db #0x00	; 0
	.db #0x00	; 0
	.db #0x33	; 51	'3'
	.db #0x40	; 64
	.db #0x00	; 0
	.db #0x33	; 51	'3'
	.db #0x40	; 64
	.db #0x00	; 0
_P15:
	.db #0x24	; 36
	.db #0x30	; 48	'0'
	.db #0x00	; 0
	.db #0x5a	; 90	'Z'
	.db #0x04	; 4
	.db #0x42	; 66	'B'
	.db #0x24	; 36
	.db #0x3c	; 60
	.db #0x03	; 3
	.db #0x5a	; 90	'Z'
	.db #0x04	; 4
	.db #0x42	; 66	'B'
	.db #0x29	; 41
	.db #0x30	; 48	'0'
	.db #0x00	; 0
	.db #0x5a	; 90	'Z'
	.db #0x00	; 0
	.db #0x00	; 0
	.db #0x5a	; 90	'Z'
	.db #0x04	; 4
	.db #0x42	; 66	'B'
	.db #0x5a	; 90	'Z'
	.db #0x04	; 4
	.db #0x42	; 66	'B'
	.db #0x5a	; 90	'Z'
	.db #0x04	; 4
	.db #0x42	; 66	'B'
	.db #0x5a	; 90	'Z'
	.db #0x04	; 4
	.db #0x42	; 66	'B'
	.db #0x30	; 48	'0'
	.db #0x30	; 48	'0'
	.db #0x00	; 0
	.db #0x5a	; 90	'Z'
	.db #0x04	; 4
	.db #0x42	; 66	'B'
	.db #0x30	; 48	'0'
	.db #0x3c	; 60
	.db #0x03	; 3
	.db #0x5a	; 90	'Z'
	.db #0x04	; 4
	.db #0x42	; 66	'B'
	.db #0x35	; 53	'5'
	.db #0x33	; 51	'3'
	.db #0x03	; 3
	.db #0x5a	; 90	'Z'
	.db #0x03	; 3
	.db #0x03	; 3
	.db #0x5a	; 90	'Z'
	.db #0x03	; 3
	.db #0x00	; 0
	.db #0x5a	; 90	'Z'
	.db #0x03	; 3
	.db #0x00	; 0
	.db #0x5a	; 90	'Z'
	.db #0x04	; 4
	.db #0x42	; 66	'B'
	.db #0x5a	; 90	'Z'
	.db #0x04	; 4
	.db #0x42	; 66	'B'
	.db #0x33	; 51	'3'
	.db #0x30	; 48	'0'
	.db #0x00	; 0
	.db #0x2c	; 44
	.db #0x3c	; 60
	.db #0x03	; 3
	.db #0x30	; 48	'0'
	.db #0x30	; 48	'0'
	.db #0x00	; 0
	.db #0x33	; 51	'3'
	.db #0x3c	; 60
	.db #0x03	; 3
	.db #0x2c	; 44
	.db #0x30	; 48	'0'
	.db #0x00	; 0
	.db #0x5a	; 90	'Z'
	.db #0x00	; 0
	.db #0x00	; 0
	.db #0x30	; 48	'0'
	.db #0x30	; 48	'0'
	.db #0x00	; 0
	.db #0x5a	; 90	'Z'
	.db #0x00	; 0
	.db #0x00	; 0
	.db #0x5a	; 90	'Z'
	.db #0x04	; 4
	.db #0x42	; 66	'B'
	.db #0x5a	; 90	'Z'
	.db #0x04	; 4
	.db #0x42	; 66	'B'
	.db #0x5a	; 90	'Z'
	.db #0x02	; 2
	.db #0x01	; 1
	.db #0x5a	; 90	'Z'
	.db #0x02	; 2
	.db #0x01	; 1
	.db #0x2e	; 46
	.db #0x30	; 48	'0'
	.db #0x00	; 0
	.db #0x5a	; 90	'Z'
	.db #0x00	; 0
	.db #0x00	; 0
	.db #0x5a	; 90	'Z'
	.db #0x04	; 4
	.db #0x42	; 66	'B'
	.db #0x5a	; 90	'Z'
	.db #0x04	; 4
	.db #0x42	; 66	'B'
	.db #0x5a	; 90	'Z'
	.db #0x04	; 4
	.db #0x42	; 66	'B'
	.db #0x2c	; 44
	.db #0x30	; 48	'0'
	.db #0x00	; 0
	.db #0x29	; 41
	.db #0x3c	; 60
	.db #0x03	; 3
	.db #0x5a	; 90	'Z'
	.db #0x00	; 0
	.db #0x00	; 0
	.db #0x2e	; 46
	.db #0x30	; 48	'0'
	.db #0x00	; 0
	.db #0x29	; 41
	.db #0x3c	; 60
	.db #0x03	; 3
	.db #0x2c	; 44
	.db #0x30	; 48	'0'
	.db #0x00	; 0
	.db #0x2e	; 46
	.db #0x30	; 48	'0'
	.db #0x00	; 0
	.db #0x2c	; 44
	.db #0x3c	; 60
	.db #0x03	; 3
	.db #0x2c	; 44
	.db #0x30	; 48	'0'
	.db #0x00	; 0
	.db #0x2e	; 46
	.db #0x30	; 48	'0'
	.db #0x00	; 0
	.db #0x2c	; 44
	.db #0x3c	; 60
	.db #0x03	; 3
	.db #0x30	; 48	'0'
	.db #0x30	; 48	'0'
	.db #0x00	; 0
	.db #0x5a	; 90	'Z'
	.db #0x04	; 4
	.db #0x42	; 66	'B'
	.db #0x5a	; 90	'Z'
	.db #0x04	; 4
	.db #0x42	; 66	'B'
	.db #0x33	; 51	'3'
	.db #0x3c	; 60
	.db #0x03	; 3
	.db #0x35	; 53	'5'
	.db #0x33	; 51	'3'
	.db #0x01	; 1
	.db #0x5a	; 90	'Z'
	.db #0x03	; 3
	.db #0x01	; 1
	.db #0x5a	; 90	'Z'
	.db #0x03	; 3
	.db #0x01	; 1
	.db #0x5a	; 90	'Z'
	.db #0x03	; 3
	.db #0x01	; 1
	.db #0x5a	; 90	'Z'
	.db #0x03	; 3
	.db #0x01	; 1
	.db #0x5a	; 90	'Z'
	.db #0x04	; 4
	.db #0x42	; 66	'B'
	.db #0x5a	; 90	'Z'
	.db #0x04	; 4
	.db #0x42	; 66	'B'
	.db #0x5a	; 90	'Z'
	.db #0x04	; 4
	.db #0x42	; 66	'B'
	.db #0x5a	; 90	'Z'
	.db #0x02	; 2
	.db #0x05	; 5
	.db #0x5a	; 90	'Z'
	.db #0x02	; 2
	.db #0x05	; 5
	.db #0x5a	; 90	'Z'
	.db #0x02	; 2
	.db #0x05	; 5
	.db #0x5a	; 90	'Z'
	.db #0x02	; 2
	.db #0x05	; 5
_P16:
	.db #0x1d	; 29
	.db #0x10	; 16
	.db #0x00	; 0
	.db #0x20	; 32
	.db #0x03	; 3
	.db #0x32	; 50	'2'
	.db #0x24	; 36
	.db #0x03	; 3
	.db #0x32	; 50	'2'
	.db #0x29	; 41
	.db #0x03	; 3
	.db #0x32	; 50	'2'
	.db #0x2c	; 44
	.db #0x10	; 16
	.db #0x00	; 0
	.db #0x29	; 41
	.db #0x03	; 3
	.db #0x32	; 50	'2'
	.db #0x24	; 36
	.db #0x03	; 3
	.db #0x32	; 50	'2'
	.db #0x20	; 32
	.db #0x03	; 3
	.db #0x32	; 50	'2'
	.db #0x1d	; 29
	.db #0x10	; 16
	.db #0x00	; 0
	.db #0x20	; 32
	.db #0x03	; 3
	.db #0x32	; 50	'2'
	.db #0x24	; 36
	.db #0x03	; 3
	.db #0x32	; 50	'2'
	.db #0x29	; 41
	.db #0x03	; 3
	.db #0x32	; 50	'2'
	.db #0x2c	; 44
	.db #0x10	; 16
	.db #0x00	; 0
	.db #0x29	; 41
	.db #0x03	; 3
	.db #0x32	; 50	'2'
	.db #0x24	; 36
	.db #0x03	; 3
	.db #0x32	; 50	'2'
	.db #0x20	; 32
	.db #0x03	; 3
	.db #0x32	; 50	'2'
	.db #0x1d	; 29
	.db #0x10	; 16
	.db #0x00	; 0
	.db #0x24	; 36
	.db #0x03	; 3
	.db #0x32	; 50	'2'
	.db #0x27	; 39
	.db #0x03	; 3
	.db #0x32	; 50	'2'
	.db #0x2c	; 44
	.db #0x03	; 3
	.db #0x32	; 50	'2'
	.db #0x30	; 48	'0'
	.db #0x03	; 3
	.db #0x32	; 50	'2'
	.db #0x2c	; 44
	.db #0x10	; 16
	.db #0x00	; 0
	.db #0x27	; 39
	.db #0x03	; 3
	.db #0x32	; 50	'2'
	.db #0x24	; 36
	.db #0x03	; 3
	.db #0x32	; 50	'2'
	.db #0x20	; 32
	.db #0x10	; 16
	.db #0x00	; 0
	.db #0x24	; 36
	.db #0x03	; 3
	.db #0x32	; 50	'2'
	.db #0x27	; 39
	.db #0x03	; 3
	.db #0x32	; 50	'2'
	.db #0x2c	; 44
	.db #0x03	; 3
	.db #0x32	; 50	'2'
	.db #0x30	; 48	'0'
	.db #0x10	; 16
	.db #0x00	; 0
	.db #0x2c	; 44
	.db #0x03	; 3
	.db #0x32	; 50	'2'
	.db #0x27	; 39
	.db #0x03	; 3
	.db #0x32	; 50	'2'
	.db #0x24	; 36
	.db #0x03	; 3
	.db #0x32	; 50	'2'
	.db #0x22	; 34
	.db #0x10	; 16
	.db #0x00	; 0
	.db #0x26	; 38
	.db #0x03	; 3
	.db #0x32	; 50	'2'
	.db #0x29	; 41
	.db #0x03	; 3
	.db #0x32	; 50	'2'
	.db #0x2e	; 46
	.db #0x03	; 3
	.db #0x32	; 50	'2'
	.db #0x32	; 50	'2'
	.db #0x10	; 16
	.db #0x00	; 0
	.db #0x2e	; 46
	.db #0x03	; 3
	.db #0x32	; 50	'2'
	.db #0x29	; 41
	.db #0x03	; 3
	.db #0x32	; 50	'2'
	.db #0x26	; 38
	.db #0x03	; 3
	.db #0x32	; 50	'2'
	.db #0x22	; 34
	.db #0x10	; 16
	.db #0x00	; 0
	.db #0x26	; 38
	.db #0x03	; 3
	.db #0x32	; 50	'2'
	.db #0x29	; 41
	.db #0x03	; 3
	.db #0x32	; 50	'2'
	.db #0x2e	; 46
	.db #0x03	; 3
	.db #0x32	; 50	'2'
	.db #0x32	; 50	'2'
	.db #0x10	; 16
	.db #0x00	; 0
	.db #0x2e	; 46
	.db #0x03	; 3
	.db #0x32	; 50	'2'
	.db #0x29	; 41
	.db #0x03	; 3
	.db #0x32	; 50	'2'
	.db #0x26	; 38
	.db #0x03	; 3
	.db #0x32	; 50	'2'
	.db #0x1d	; 29
	.db #0x10	; 16
	.db #0x00	; 0
	.db #0x24	; 36
	.db #0x03	; 3
	.db #0x32	; 50	'2'
	.db #0x29	; 41
	.db #0x03	; 3
	.db #0x32	; 50	'2'
	.db #0x30	; 48	'0'
	.db #0x03	; 3
	.db #0x32	; 50	'2'
	.db #0x35	; 53	'5'
	.db #0x10	; 16
	.db #0x00	; 0
	.db #0x30	; 48	'0'
	.db #0x03	; 3
	.db #0x32	; 50	'2'
	.db #0x29	; 41
	.db #0x03	; 3
	.db #0x32	; 50	'2'
	.db #0x24	; 36
	.db #0x03	; 3
	.db #0x32	; 50	'2'
	.db #0x1d	; 29
	.db #0x10	; 16
	.db #0x00	; 0
	.db #0x24	; 36
	.db #0x03	; 3
	.db #0x32	; 50	'2'
	.db #0x29	; 41
	.db #0x03	; 3
	.db #0x32	; 50	'2'
	.db #0x30	; 48	'0'
	.db #0x03	; 3
	.db #0x32	; 50	'2'
	.db #0x35	; 53	'5'
	.db #0x10	; 16
	.db #0x00	; 0
	.db #0x30	; 48	'0'
	.db #0x03	; 3
	.db #0x32	; 50	'2'
	.db #0x29	; 41
	.db #0x03	; 3
	.db #0x32	; 50	'2'
	.db #0x24	; 36
	.db #0x03	; 3
	.db #0x32	; 50	'2'
_P17:
	.db #0x29	; 41
	.db #0x30	; 48	'0'
	.db #0x00	; 0
	.db #0x5a	; 90	'Z'
	.db #0x04	; 4
	.db #0x42	; 66	'B'
	.db #0x5a	; 90	'Z'
	.db #0x04	; 4
	.db #0x42	; 66	'B'
	.db #0x27	; 39
	.db #0x30	; 48	'0'
	.db #0x00	; 0
	.db #0x5a	; 90	'Z'
	.db #0x04	; 4
	.db #0x42	; 66	'B'
	.db #0x5a	; 90	'Z'
	.db #0x04	; 4
	.db #0x42	; 66	'B'
	.db #0x29	; 41
	.db #0x30	; 48	'0'
	.db #0x00	; 0
	.db #0x5a	; 90	'Z'
	.db #0x04	; 4
	.db #0x42	; 66	'B'
	.db #0x5a	; 90	'Z'
	.db #0x04	; 4
	.db #0x42	; 66	'B'
	.db #0x5a	; 90	'Z'
	.db #0x04	; 4
	.db #0x42	; 66	'B'
	.db #0x2c	; 44
	.db #0x03	; 3
	.db #0x04	; 4
	.db #0x5a	; 90	'Z'
	.db #0x03	; 3
	.db #0x04	; 4
	.db #0x5a	; 90	'Z'
	.db #0x03	; 3
	.db #0x04	; 4
	.db #0x5a	; 90	'Z'
	.db #0x03	; 3
	.db #0x04	; 4
	.db #0x29	; 41
	.db #0x34	; 52	'4'
	.db #0x00	; 0
	.db #0x5a	; 90	'Z'
	.db #0x04	; 4
	.db #0x02	; 2
	.db #0x27	; 39
	.db #0x30	; 48	'0'
	.db #0x00	; 0
	.db #0x29	; 41
	.db #0x3c	; 60
	.db #0x03	; 3
	.db #0x24	; 36
	.db #0x30	; 48	'0'
	.db #0x00	; 0
	.db #0x27	; 39
	.db #0x3c	; 60
	.db #0x03	; 3
	.db #0x29	; 41
	.db #0x30	; 48	'0'
	.db #0x00	; 0
	.db #0x5a	; 90	'Z'
	.db #0x00	; 0
	.db #0x00	; 0
	.db #0x27	; 39
	.db #0x30	; 48	'0'
	.db #0x00	; 0
	.db #0x5a	; 90	'Z'
	.db #0x00	; 0
	.db #0x00	; 0
	.db #0x5a	; 90	'Z'
	.db #0x04	; 4
	.db #0xa1	; 161
	.db #0x5a	; 90	'Z'
	.db #0x04	; 4
	.db #0x00	; 0
	.db #0x2c	; 44
	.db #0x30	; 48	'0'
	.db #0x00	; 0
	.db #0x5a	; 90	'Z'
	.db #0x00	; 0
	.db #0x00	; 0
	.db #0x2e	; 46
	.db #0x03	; 3
	.db #0x02	; 2
	.db #0x5a	; 90	'Z'
	.db #0x03	; 3
	.db #0x02	; 2
	.db #0x5a	; 90	'Z'
	.db #0x04	; 4
	.db #0xa1	; 161
	.db #0x5a	; 90	'Z'
	.db #0x04	; 4
	.db #0x00	; 0
	.db #0x30	; 48	'0'
	.db #0x30	; 48	'0'
	.db #0x00	; 0
	.db #0x5a	; 90	'Z'
	.db #0x04	; 4
	.db #0x02	; 2
	.db #0x2e	; 46
	.db #0x30	; 48	'0'
	.db #0x00	; 0
	.db #0x2c	; 44
	.db #0x3c	; 60
	.db #0x03	; 3
	.db #0x29	; 41
	.db #0x30	; 48	'0'
	.db #0x00	; 0
	.db #0x2c	; 44
	.db #0x30	; 48	'0'
	.db #0x00	; 0
	.db #0x29	; 41
	.db #0x3c	; 60
	.db #0x03	; 3
	.db #0x2e	; 46
	.db #0x30	; 48	'0'
	.db #0x00	; 0
	.db #0x30	; 48	'0'
	.db #0x30	; 48	'0'
	.db #0x00	; 0
	.db #0x2e	; 46
	.db #0x3c	; 60
	.db #0x03	; 3
	.db #0x2e	; 46
	.db #0x30	; 48	'0'
	.db #0x00	; 0
	.db #0x30	; 48	'0'
	.db #0x30	; 48	'0'
	.db #0x00	; 0
	.db #0x2e	; 46
	.db #0x3c	; 60
	.db #0x03	; 3
	.db #0x33	; 51	'3'
	.db #0x30	; 48	'0'
	.db #0x00	; 0
	.db #0x5a	; 90	'Z'
	.db #0x04	; 4
	.db #0xa1	; 161
	.db #0x5a	; 90	'Z'
	.db #0x04	; 4
	.db #0x02	; 2
	.db #0x35	; 53	'5'
	.db #0x03	; 3
	.db #0x03	; 3
	.db #0x5a	; 90	'Z'
	.db #0x04	; 4
	.db #0x42	; 66	'B'
	.db #0x5a	; 90	'Z'
	.db #0x04	; 4
	.db #0x42	; 66	'B'
	.db #0x5a	; 90	'Z'
	.db #0x04	; 4
	.db #0x42	; 66	'B'
	.db #0x5a	; 90	'Z'
	.db #0x04	; 4
	.db #0x42	; 66	'B'
	.db #0x5a	; 90	'Z'
	.db #0x04	; 4
	.db #0x42	; 66	'B'
	.db #0x5a	; 90	'Z'
	.db #0x04	; 4
	.db #0x42	; 66	'B'
	.db #0x5a	; 90	'Z'
	.db #0x04	; 4
	.db #0x42	; 66	'B'
	.db #0x5a	; 90	'Z'
	.db #0x04	; 4
	.db #0x42	; 66	'B'
	.db #0x5a	; 90	'Z'
	.db #0x04	; 4
	.db #0x42	; 66	'B'
	.db #0x1d	; 29
	.db #0x03	; 3
	.db #0x07	; 7
	.db #0x5a	; 90	'Z'
	.db #0x03	; 3
	.db #0x07	; 7
	.db #0x5a	; 90	'Z'
	.db #0x03	; 3
	.db #0x07	; 7
	.db #0x5a	; 90	'Z'
	.db #0x03	; 3
	.db #0x07	; 7
	.db #0x5a	; 90	'Z'
	.db #0x03	; 3
	.db #0x07	; 7
	.db #0x5a	; 90	'Z'
	.db #0x03	; 3
	.db #0x07	; 7
_P18:
	.db #0x1d	; 29
	.db #0x10	; 16
	.db #0x00	; 0
	.db #0x5a	; 90	'Z'
	.db #0x04	; 4
	.db #0x42	; 66	'B'
	.db #0x5a	; 90	'Z'
	.db #0x04	; 4
	.db #0x42	; 66	'B'
	.db #0x5a	; 90	'Z'
	.db #0x04	; 4
	.db #0x42	; 66	'B'
	.db #0x24	; 36
	.db #0x03	; 3
	.db #0x0e	; 14
	.db #0x5a	; 90	'Z'
	.db #0x03	; 3
	.db #0x0e	; 14
	.db #0x5a	; 90	'Z'
	.db #0x03	; 3
	.db #0x0e	; 14
	.db #0x5a	; 90	'Z'
	.db #0x04	; 4
	.db #0x42	; 66	'B'
	.db #0x5a	; 90	'Z'
	.db #0x04	; 4
	.db #0x42	; 66	'B'
	.db #0x5a	; 90	'Z'
	.db #0x04	; 4
	.db #0x42	; 66	'B'
	.db #0x1d	; 29
	.db #0x10	; 16
	.db #0x00	; 0
	.db #0x5a	; 90	'Z'
	.db #0x00	; 0
	.db #0x00	; 0
	.db #0x24	; 36
	.db #0x10	; 16
	.db #0x00	; 0
	.db #0x1d	; 29
	.db #0x1c	; 28
	.db #0x03	; 3
	.db #0x29	; 41
	.db #0x10	; 16
	.db #0x00	; 0
	.db #0x24	; 36
	.db #0x1c	; 28
	.db #0x03	; 3
	.db #0x27	; 39
	.db #0x10	; 16
	.db #0x00	; 0
	.db #0x5a	; 90	'Z'
	.db #0x00	; 0
	.db #0x00	; 0
	.db #0x5a	; 90	'Z'
	.db #0x04	; 4
	.db #0xa1	; 161
	.db #0x5a	; 90	'Z'
	.db #0x04	; 4
	.db #0x02	; 2
	.db #0x24	; 36
	.db #0x03	; 3
	.db #0x04	; 4
	.db #0x5a	; 90	'Z'
	.db #0x03	; 3
	.db #0x04	; 4
	.db #0x5a	; 90	'Z'
	.db #0x03	; 3
	.db #0x04	; 4
	.db #0x5a	; 90	'Z'
	.db #0x04	; 4
	.db #0x42	; 66	'B'
	.db #0x5a	; 90	'Z'
	.db #0x04	; 4
	.db #0x42	; 66	'B'
	.db #0x5a	; 90	'Z'
	.db #0x04	; 4
	.db #0x42	; 66	'B'
	.db #0x1d	; 29
	.db #0x10	; 16
	.db #0x00	; 0
	.db #0x5a	; 90	'Z'
	.db #0x00	; 0
	.db #0x00	; 0
	.db #0x27	; 39
	.db #0x10	; 16
	.db #0x00	; 0
	.db #0x1d	; 29
	.db #0x1c	; 28
	.db #0x03	; 3
	.db #0x29	; 41
	.db #0x10	; 16
	.db #0x00	; 0
	.db #0x27	; 39
	.db #0x1c	; 28
	.db #0x03	; 3
	.db #0x26	; 38
	.db #0x10	; 16
	.db #0x00	; 0
	.db #0x29	; 41
	.db #0x1c	; 28
	.db #0x03	; 3
	.db #0x26	; 38
	.db #0x10	; 16
	.db #0x00	; 0
	.db #0x5a	; 90	'Z'
	.db #0x00	; 0
	.db #0x00	; 0
	.db #0x22	; 34
	.db #0x03	; 3
	.db #0x06	; 6
	.db #0x5a	; 90	'Z'
	.db #0x03	; 3
	.db #0x06	; 6
	.db #0x5a	; 90	'Z'
	.db #0x04	; 4
	.db #0x42	; 66	'B'
	.db #0x5a	; 90	'Z'
	.db #0x04	; 4
	.db #0x42	; 66	'B'
	.db #0x5a	; 90	'Z'
	.db #0x04	; 4
	.db #0x42	; 66	'B'
	.db #0x5a	; 90	'Z'
	.db #0x04	; 4
	.db #0x42	; 66	'B'
	.db #0x26	; 38
	.db #0x10	; 16
	.db #0x00	; 0
	.db #0x5a	; 90	'Z'
	.db #0x00	; 0
	.db #0x00	; 0
	.db #0x22	; 34
	.db #0x1c	; 28
	.db #0x03	; 3
	.db #0x24	; 36
	.db #0x10	; 16
	.db #0x00	; 0
	.db #0x22	; 34
	.db #0x10	; 16
	.db #0x00	; 0
	.db #0x5a	; 90	'Z'
	.db #0x00	; 0
	.db #0x00	; 0
	.db #0x24	; 36
	.db #0x03	; 3
	.db #0x03	; 3
	.db #0x5a	; 90	'Z'
	.db #0x03	; 3
	.db #0x03	; 3
	.db #0x5a	; 90	'Z'
	.db #0x03	; 3
	.db #0x03	; 3
	.db #0x5a	; 90	'Z'
	.db #0x03	; 3
	.db #0x03	; 3
	.db #0x5a	; 90	'Z'
	.db #0x04	; 4
	.db #0x42	; 66	'B'
	.db #0x5a	; 90	'Z'
	.db #0x04	; 4
	.db #0x42	; 66	'B'
	.db #0x5a	; 90	'Z'
	.db #0x04	; 4
	.db #0x42	; 66	'B'
	.db #0x5a	; 90	'Z'
	.db #0x04	; 4
	.db #0x42	; 66	'B'
	.db #0x5a	; 90	'Z'
	.db #0x04	; 4
	.db #0x42	; 66	'B'
	.db #0x5a	; 90	'Z'
	.db #0x04	; 4
	.db #0x42	; 66	'B'
	.db #0x5a	; 90	'Z'
	.db #0x04	; 4
	.db #0x42	; 66	'B'
	.db #0x5a	; 90	'Z'
	.db #0x04	; 4
	.db #0x42	; 66	'B'
	.db #0x5a	; 90	'Z'
	.db #0x04	; 4
	.db #0x42	; 66	'B'
	.db #0x5a	; 90	'Z'
	.db #0x04	; 4
	.db #0x42	; 66	'B'
	.db #0x5a	; 90	'Z'
	.db #0x04	; 4
	.db #0x42	; 66	'B'
	.db #0x5a	; 90	'Z'
	.db #0x04	; 4
	.db #0x42	; 66	'B'
_P19:
	.db #0x1d	; 29
	.db #0x10	; 16
	.db #0x00	; 0
	.db #0x5a	; 90	'Z'
	.db #0x04	; 4
	.db #0x42	; 66	'B'
	.db #0x5a	; 90	'Z'
	.db #0x04	; 4
	.db #0x42	; 66	'B'
	.db #0x5a	; 90	'Z'
	.db #0x04	; 4
	.db #0x42	; 66	'B'
	.db #0x24	; 36
	.db #0x03	; 3
	.db #0x0e	; 14
	.db #0x5a	; 90	'Z'
	.db #0x03	; 3
	.db #0x0e	; 14
	.db #0x5a	; 90	'Z'
	.db #0x03	; 3
	.db #0x0e	; 14
	.db #0x5a	; 90	'Z'
	.db #0x04	; 4
	.db #0x42	; 66	'B'
	.db #0x5a	; 90	'Z'
	.db #0x04	; 4
	.db #0x42	; 66	'B'
	.db #0x5a	; 90	'Z'
	.db #0x04	; 4
	.db #0x42	; 66	'B'
	.db #0x1d	; 29
	.db #0x10	; 16
	.db #0x00	; 0
	.db #0x5a	; 90	'Z'
	.db #0x00	; 0
	.db #0x00	; 0
	.db #0x24	; 36
	.db #0x10	; 16
	.db #0x00	; 0
	.db #0x1d	; 29
	.db #0x1c	; 28
	.db #0x03	; 3
	.db #0x29	; 41
	.db #0x10	; 16
	.db #0x00	; 0
	.db #0x24	; 36
	.db #0x1c	; 28
	.db #0x03	; 3
	.db #0x2c	; 44
	.db #0x10	; 16
	.db #0x00	; 0
	.db #0x5a	; 90	'Z'
	.db #0x00	; 0
	.db #0x00	; 0
	.db #0x5a	; 90	'Z'
	.db #0x04	; 4
	.db #0x42	; 66	'B'
	.db #0x5a	; 90	'Z'
	.db #0x04	; 4
	.db #0x42	; 66	'B'
	.db #0x2e	; 46
	.db #0x03	; 3
	.db #0x05	; 5
	.db #0x5a	; 90	'Z'
	.db #0x03	; 3
	.db #0x05	; 5
	.db #0x5a	; 90	'Z'
	.db #0x03	; 3
	.db #0x05	; 5
	.db #0x5a	; 90	'Z'
	.db #0x04	; 4
	.db #0x42	; 66	'B'
	.db #0x5a	; 90	'Z'
	.db #0x04	; 4
	.db #0x42	; 66	'B'
	.db #0x5a	; 90	'Z'
	.db #0x04	; 4
	.db #0x42	; 66	'B'
	.db #0x33	; 51	'3'
	.db #0x10	; 16
	.db #0x00	; 0
	.db #0x5a	; 90	'Z'
	.db #0x00	; 0
	.db #0x00	; 0
	.db #0x30	; 48	'0'
	.db #0x10	; 16
	.db #0x00	; 0
	.db #0x33	; 51	'3'
	.db #0x1c	; 28
	.db #0x03	; 3
	.db #0x2c	; 44
	.db #0x10	; 16
	.db #0x00	; 0
	.db #0x27	; 39
	.db #0x1c	; 28
	.db #0x03	; 3
	.db #0x2e	; 46
	.db #0x10	; 16
	.db #0x00	; 0
	.db #0x30	; 48	'0'
	.db #0x1c	; 28
	.db #0x03	; 3
	.db #0x33	; 51	'3'
	.db #0x10	; 16
	.db #0x00	; 0
	.db #0x35	; 53	'5'
	.db #0x03	; 3
	.db #0x04	; 4
	.db #0x5a	; 90	'Z'
	.db #0x03	; 3
	.db #0x04	; 4
	.db #0x5a	; 90	'Z'
	.db #0x03	; 3
	.db #0x04	; 4
	.db #0x5a	; 90	'Z'
	.db #0x04	; 4
	.db #0x42	; 66	'B'
	.db #0x5a	; 90	'Z'
	.db #0x04	; 4
	.db #0x42	; 66	'B'
	.db #0x5a	; 90	'Z'
	.db #0x04	; 4
	.db #0x42	; 66	'B'
	.db #0x35	; 53	'5'
	.db #0x10	; 16
	.db #0x00	; 0
	.db #0x5a	; 90	'Z'
	.db #0x00	; 0
	.db #0x00	; 0
	.db #0x33	; 51	'3'
	.db #0x1c	; 28
	.db #0x03	; 3
	.db #0x30	; 48	'0'
	.db #0x10	; 16
	.db #0x00	; 0
	.db #0x33	; 51	'3'
	.db #0x10	; 16
	.db #0x00	; 0
	.db #0x5a	; 90	'Z'
	.db #0x00	; 0
	.db #0x00	; 0
	.db #0x30	; 48	'0'
	.db #0x03	; 3
	.db #0x02	; 2
	.db #0x5a	; 90	'Z'
	.db #0x03	; 3
	.db #0x02	; 2
	.db #0x5a	; 90	'Z'
	.db #0x03	; 3
	.db #0x02	; 2
	.db #0x5a	; 90	'Z'
	.db #0x03	; 3
	.db #0x02	; 2
	.db #0x5a	; 90	'Z'
	.db #0x04	; 4
	.db #0x42	; 66	'B'
	.db #0x5a	; 90	'Z'
	.db #0x04	; 4
	.db #0x42	; 66	'B'
	.db #0x5a	; 90	'Z'
	.db #0x04	; 4
	.db #0x42	; 66	'B'
	.db #0x5a	; 90	'Z'
	.db #0x04	; 4
	.db #0x42	; 66	'B'
	.db #0x5a	; 90	'Z'
	.db #0x04	; 4
	.db #0x42	; 66	'B'
	.db #0x5a	; 90	'Z'
	.db #0x04	; 4
	.db #0x42	; 66	'B'
	.db #0x5a	; 90	'Z'
	.db #0x04	; 4
	.db #0x42	; 66	'B'
	.db #0x5a	; 90	'Z'
	.db #0x04	; 4
	.db #0x42	; 66	'B'
	.db #0x5a	; 90	'Z'
	.db #0x04	; 4
	.db #0x42	; 66	'B'
	.db #0x5a	; 90	'Z'
	.db #0x04	; 4
	.db #0x42	; 66	'B'
	.db #0x5a	; 90	'Z'
	.db #0x04	; 4
	.db #0x42	; 66	'B'
	.db #0x5a	; 90	'Z'
	.db #0x04	; 4
	.db #0x42	; 66	'B'
	.db #0x5a	; 90	'Z'
	.db #0x0b	; 11
	.db #0x03	; 3
_order1:
	.dw _P2
	.dw _P6
	.dw _P10
	.dw _P11
	.dw _P16
	.dw _P16
	.dw _P16
	.dw _P16
	.dw _P0
_order2:
	.dw _P1
	.dw _P7
	.dw _P3
	.dw _P13
	.dw _P15
	.dw _P17
	.dw _P18
	.dw _P19
	.dw _P0
_order3:
	.dw _P0
	.dw _P4
	.dw _P8
	.dw _P12
	.dw _P8
	.dw _P8
	.dw _P8
	.dw _P8
	.dw _P0
_order4:
	.dw _P0
	.dw _P5
	.dw _P9
	.dw _P14
	.dw _P9
	.dw _P9
	.dw _P9
	.dw _P9
	.dw _P0
_duty_instruments:
	.db #0x08	; 8
	.db #0x80	; 128
	.db #0x80	; 128
	.db #0x80	; 128
	.db #0x08	; 8
	.db #0x80	; 128
	.db #0x20	; 32
	.db #0x80	; 128
	.db #0x08	; 8
	.db #0x40	; 64
	.db #0xa0	; 160
	.db #0x80	; 128
	.db #0x08	; 8
	.db #0x40	; 64
	.db #0x30	; 48	'0'
	.db #0x80	; 128
	.db #0x08	; 8
	.db #0x80	; 128
	.db #0xf0	; 240
	.db #0x80	; 128
	.db #0x08	; 8
	.db #0x40	; 64
	.db #0x90	; 144
	.db #0x80	; 128
	.db #0x08	; 8
	.db #0x40	; 64
	.db #0x30	; 48	'0'
	.db #0x80	; 128
	.db #0x08	; 8
	.db #0x80	; 128
	.db #0xf0	; 240
	.db #0x80	; 128
	.db #0x08	; 8
	.db #0x80	; 128
	.db #0xf0	; 240
	.db #0x80	; 128
	.db #0x08	; 8
	.db #0x80	; 128
	.db #0xf0	; 240
	.db #0x80	; 128
	.db #0x08	; 8
	.db #0x80	; 128
	.db #0xf0	; 240
	.db #0x80	; 128
	.db #0x08	; 8
	.db #0x80	; 128
	.db #0xf0	; 240
	.db #0x80	; 128
	.db #0x08	; 8
	.db #0x80	; 128
	.db #0xf0	; 240
	.db #0x80	; 128
	.db #0x08	; 8
	.db #0x80	; 128
	.db #0xf0	; 240
	.db #0x80	; 128
	.db #0x08	; 8
	.db #0x80	; 128
	.db #0xf0	; 240
	.db #0x80	; 128
_wave_instruments:
	.db #0x00	; 0
	.db #0x20	; 32
	.db #0x00	; 0
	.db #0x80	; 128
	.db #0x00	; 0
	.db #0x20	; 32
	.db #0x00	; 0
	.db #0x80	; 128
	.db #0x00	; 0
	.db #0x20	; 32
	.db #0x00	; 0
	.db #0x80	; 128
	.db #0x00	; 0
	.db #0x20	; 32
	.db #0x00	; 0
	.db #0x80	; 128
	.db #0x00	; 0
	.db #0x20	; 32
	.db #0x01	; 1
	.db #0x80	; 128
	.db #0x00	; 0
	.db #0x20	; 32
	.db #0x00	; 0
	.db #0x80	; 128
	.db #0x00	; 0
	.db #0x20	; 32
	.db #0x00	; 0
	.db #0x80	; 128
	.db #0x00	; 0
	.db #0x20	; 32
	.db #0x00	; 0
	.db #0x80	; 128
	.db #0x00	; 0
	.db #0x20	; 32
	.db #0x00	; 0
	.db #0x80	; 128
	.db #0x00	; 0
	.db #0x20	; 32
	.db #0x00	; 0
	.db #0x80	; 128
	.db #0x00	; 0
	.db #0x20	; 32
	.db #0x00	; 0
	.db #0x80	; 128
	.db #0x00	; 0
	.db #0x20	; 32
	.db #0x00	; 0
	.db #0x80	; 128
	.db #0x00	; 0
	.db #0x20	; 32
	.db #0x00	; 0
	.db #0x80	; 128
	.db #0x00	; 0
	.db #0x20	; 32
	.db #0x00	; 0
	.db #0x80	; 128
	.db #0x00	; 0
	.db #0x20	; 32
	.db #0x00	; 0
	.db #0x80	; 128
_noise_instruments:
	.db #0xf0	; 240
	.db #0x00	; 0
	.db #0x00	; 0
	.db #0x00	; 0
	.db #0x00	; 0
	.db #0x00	; 0
	.db #0x00	; 0
	.db #0x00	; 0
	.db #0xf0	; 240
	.db #0x00	; 0
	.db #0x00	; 0
	.db #0x00	; 0
	.db #0x00	; 0
	.db #0x00	; 0
	.db #0x00	; 0
	.db #0x00	; 0
	.db #0xf0	; 240
	.db #0x00	; 0
	.db #0x00	; 0
	.db #0x00	; 0
	.db #0x00	; 0
	.db #0x00	; 0
	.db #0x00	; 0
	.db #0x00	; 0
	.db #0xa2	; 162
	.db #0x49	; 73	'I'
	.db #0x00	; 0
	.db #0x00	; 0
	.db #0x00	; 0
	.db #0x00	; 0
	.db #0x00	; 0
	.db #0x00	; 0
	.db #0xf0	; 240
	.db #0x00	; 0
	.db #0x00	; 0
	.db #0x00	; 0
	.db #0x00	; 0
	.db #0x00	; 0
	.db #0x00	; 0
	.db #0x00	; 0
	.db #0xf0	; 240
	.db #0x00	; 0
	.db #0x00	; 0
	.db #0x00	; 0
	.db #0x00	; 0
	.db #0x00	; 0
	.db #0x00	; 0
	.db #0x00	; 0
	.db #0xf0	; 240
	.db #0x00	; 0
	.db #0x00	; 0
	.db #0x00	; 0
	.db #0x00	; 0
	.db #0x00	; 0
	.db #0x00	; 0
	.db #0x00	; 0
	.db #0x81	; 129
	.db #0x40	; 64
	.db #0x00	; 0
	.db #0x00	; 0
	.db #0x00	; 0
	.db #0x00	; 0
	.db #0x00	; 0
	.db #0x00	; 0
	.db #0x90	; 144
	.db #0x7e	; 126
	.db #0x00	; 0
	.db #0x00	; 0
	.db #0x00	; 0
	.db #0x00	; 0
	.db #0x00	; 0
	.db #0x00	; 0
	.db #0xf0	; 240
	.db #0x00	; 0
	.db #0x00	; 0
	.db #0x00	; 0
	.db #0x00	; 0
	.db #0x00	; 0
	.db #0x00	; 0
	.db #0x00	; 0
	.db #0xf0	; 240
	.db #0x00	; 0
	.db #0x00	; 0
	.db #0x00	; 0
	.db #0x00	; 0
	.db #0x00	; 0
	.db #0x00	; 0
	.db #0x00	; 0
	.db #0xf0	; 240
	.db #0x00	; 0
	.db #0x00	; 0
	.db #0x00	; 0
	.db #0x00	; 0
	.db #0x00	; 0
	.db #0x00	; 0
	.db #0x00	; 0
	.db #0xf0	; 240
	.db #0x00	; 0
	.db #0x00	; 0
	.db #0x00	; 0
	.db #0x00	; 0
	.db #0x00	; 0
	.db #0x00	; 0
	.db #0x00	; 0
	.db #0xf0	; 240
	.db #0x00	; 0
	.db #0x00	; 0
	.db #0x00	; 0
	.db #0x00	; 0
	.db #0x00	; 0
	.db #0x00	; 0
	.db #0x00	; 0
	.db #0xf0	; 240
	.db #0x00	; 0
	.db #0x00	; 0
	.db #0x00	; 0
	.db #0x00	; 0
	.db #0x00	; 0
	.db #0x00	; 0
	.db #0x00	; 0
_waves:
	.db #0xff	; 255
	.db #0xee	; 238
	.db #0xdd	; 221
	.db #0xcc	; 204
	.db #0xbb	; 187
	.db #0xaa	; 170
	.db #0x99	; 153
	.db #0x88	; 136
	.db #0x77	; 119	'w'
	.db #0x66	; 102	'f'
	.db #0x55	; 85	'U'
	.db #0x44	; 68	'D'
	.db #0x33	; 51	'3'
	.db #0x22	; 34
	.db #0x11	; 17
	.db #0x00	; 0
	.db #0x8a	; 138
	.db #0xce	; 206
	.db #0xff	; 255
	.db #0xff	; 255
	.db #0xff	; 255
	.db #0xff	; 255
	.db #0xfe	; 254
	.db #0xca	; 202
	.db #0x85	; 133
	.db #0x31	; 49	'1'
	.db #0x00	; 0
	.db #0x00	; 0
	.db #0x00	; 0
	.db #0x00	; 0
	.db #0x01	; 1
	.db #0x35	; 53	'5'
	.db #0xb0	; 176
	.db #0x9a	; 154
	.db #0x90	; 144
	.db #0x93	; 147
	.db #0x5d	; 93
	.db #0x72	; 114	'r'
	.db #0x74	; 116	't'
	.db #0x85	; 133
	.db #0x44	; 68	'D'
	.db #0x59	; 89	'Y'
	.db #0x92	; 146
	.db #0x19	; 25
	.db #0x55	; 85	'U'
	.db #0xe1	; 225
	.db #0xb4	; 180
	.db #0x02	; 2
	.db #0x3b	; 59
	.db #0x2d	; 45
	.db #0x0a	; 10
	.db #0xd1	; 209
	.db #0x33	; 51	'3'
	.db #0x3e	; 62
	.db #0x5a	; 90	'Z'
	.db #0x09	; 9
	.db #0x71	; 113	'q'
	.db #0x3c	; 60
	.db #0x80	; 128
	.db #0x00	; 0
	.db #0xe7	; 231
	.db #0x4b	; 75	'K'
	.db #0x02	; 2
	.db #0x01	; 1
	.db #0x6b	; 107	'k'
	.db #0xea	; 234
	.db #0x7e	; 126
	.db #0xdc	; 220
	.db #0x07	; 7
	.db #0xcc	; 204
	.db #0x99	; 153
	.db #0x5d	; 93
	.db #0xd0	; 208
	.db #0x62	; 98	'b'
	.db #0x3a	; 58
	.db #0xc2	; 194
	.db #0x81	; 129
	.db #0x7a	; 122	'z'
	.db #0x38	; 56	'8'
	.db #0x35	; 53	'5'
	.db #0x46	; 70	'F'
	.db #0xe9	; 233
	.db #0x52	; 82	'R'
	.db #0x6e	; 110	'n'
	.db #0x58	; 88	'X'
	.db #0xc7	; 199
	.db #0x03	; 3
	.db #0x06	; 6
	.db #0xa5	; 165
	.db #0x4e	; 78	'N'
	.db #0x96	; 150
	.db #0x3d	; 61
	.db #0x0c	; 12
	.db #0x7b	; 123
	.db #0x25	; 37
	.db #0x5a	; 90	'Z'
	.db #0x7e	; 126
	.db #0xa1	; 161
	.db #0x01	; 1
	.db #0x99	; 153
	.db #0x8d	; 141
	.db #0x81	; 129
	.db #0x4a	; 74	'J'
	.db #0x8c	; 140
	.db #0x3d	; 61
	.db #0x45	; 69	'E'
	.db #0xd5	; 213
	.db #0x9a	; 154
	.db #0x20	; 32
	.db #0x84	; 132
	.db #0x73	; 115	's'
	.db #0x3e	; 62
	.db #0x38	; 56	'8'
	.db #0x10	; 16
	.db #0x1e	; 30
	.db #0x92	; 146
	.db #0x92	; 146
	.db #0xb7	; 183
	.db #0xe3	; 227
	.db #0xc7	; 199
	.db #0xe0	; 224
	.db #0x5e	; 94
	.db #0x99	; 153
	.db #0x33	; 51	'3'
	.db #0xd1	; 209
	.db #0x3b	; 59
	.db #0xeb	; 235
	.db #0x51	; 81	'Q'
	.db #0x26	; 38
	.db #0x4b	; 75	'K'
	.db #0x1c	; 28
	.db #0x68	; 104	'h'
	.db #0xb8	; 184
	.db #0xda	; 218
	.db #0xe4	; 228
	.db #0xc5	; 197
	.db #0x71	; 113	'q'
	.db #0x80	; 128
	.db #0x0c	; 12
	.db #0xee	; 238
	.db #0x37	; 55	'7'
	.db #0x8a	; 138
	.db #0xe3	; 227
	.db #0x77	; 119	'w'
	.db #0x35	; 53	'5'
	.db #0x62	; 98	'b'
	.db #0x3b	; 59
	.db #0xa7	; 167
	.db #0xaa	; 170
	.db #0x0c	; 12
	.db #0x68	; 104	'h'
	.db #0x49	; 73	'I'
	.db #0x6e	; 110	'n'
	.db #0xd2	; 210
	.db #0x82	; 130
	.db #0x1c	; 28
	.db #0x47	; 71	'G'
	.db #0x9a	; 154
	.db #0x37	; 55	'7'
	.db #0x21	; 33
	.db #0x66	; 102	'f'
	.db #0x8a	; 138
	.db #0xea	; 234
	.db #0xab	; 171
	.db #0x6b	; 107	'k'
	.db #0x76	; 118	'v'
	.db #0x6d	; 109	'm'
	.db #0xb9	; 185
	.db #0xd9	; 217
	.db #0x74	; 116	't'
	.db #0x2b	; 43
	.db #0x12	; 18
	.db #0x12	; 18
	.db #0xa1	; 161
	.db #0x2b	; 43
	.db #0xb1	; 177
	.db #0x10	; 16
	.db #0x25	; 37
	.db #0x9d	; 157
	.db #0x94	; 148
	.db #0xe3	; 227
	.db #0x8c	; 140
	.db #0x36	; 54	'6'
	.db #0xaa	; 170
	.db #0x8a	; 138
	.db #0x7b	; 123
	.db #0xe3	; 227
	.db #0x83	; 131
	.db #0x39	; 57	'9'
	.db #0xe5	; 229
	.db #0x70	; 112	'p'
	.db #0x35	; 53	'5'
	.db #0xb7	; 183
	.db #0x76	; 118	'v'
	.db #0x52	; 82	'R'
	.db #0x69	; 105	'i'
	.db #0xea	; 234
	.db #0x7e	; 126
	.db #0xb5	; 181
	.db #0x62	; 98	'b'
	.db #0x97	; 151
	.db #0x99	; 153
	.db #0xb5	; 181
	.db #0xc8	; 200
	.db #0xb7	; 183
	.db #0x80	; 128
	.db #0xce	; 206
	.db #0x32	; 50	'2'
	.db #0x29	; 41
	.db #0x3d	; 61
	.db #0xa1	; 161
	.db #0x6e	; 110	'n'
	.db #0xb2	; 178
	.db #0x69	; 105	'i'
	.db #0xe2	; 226
	.db #0x5e	; 94
	.db #0x66	; 102	'f'
	.db #0x8a	; 138
	.db #0x91	; 145
	.db #0xee	; 238
	.db #0x2a	; 42
	.db #0xde	; 222
	.db #0x2a	; 42
	.db #0x9a	; 154
	.db #0x62	; 98	'b'
	.db #0xe3	; 227
	.db #0x78	; 120	'x'
	.db #0xc2	; 194
	.db #0x14	; 20
	.db #0x49	; 73	'I'
	.db #0xba	; 186
	.db #0xa4	; 164
	.db #0xdc	; 220
	.db #0x8b	; 139
	.db #0xbc	; 188
	.db #0x02	; 2
	.db #0x7a	; 122	'z'
	.db #0x32	; 50	'2'
	.db #0xd1	; 209
	.db #0x08	; 8
	.db #0xb5	; 181
	.db #0xe3	; 227
	.db #0x4d	; 77	'M'
	.db #0x4d	; 77	'M'
	.db #0xb1	; 177
	.db #0x68	; 104	'h'
	.db #0x6b	; 107	'k'
	.db #0x2a	; 42
	.db #0xb1	; 177
	.db #0xb2	; 178
	.db #0x3b	; 59
	.db #0xb1	; 177
	.db #0x2b	; 43
	.db #0x6a	; 106	'j'
	.db #0xb1	; 177
	.db #0x99	; 153
_Intro:
	.db #0x07	; 7
	.dw _order_cnt
	.dw _order1
	.dw _order2
	.dw _order3
	.dw _order4
	.dw _duty_instruments
	.dw _wave_instruments
	.dw _noise_instruments
	.dw #0x0000
	.dw _waves
_pattern1:
	.db #0x80	; 128
	.db #0x80	; 128
	.db #0x40	; 64
	.db #0x40	; 64
	.db #0x20	; 32
	.db #0x20	; 32
	.db #0x10	; 16
	.db #0x10	; 16
	.db #0x08	; 8
	.db #0x08	; 8
	.db #0x04	; 4
	.db #0x04	; 4
	.db #0x02	; 2
	.db #0x02	; 2
	.db #0x01	; 1
	.db #0x01	; 1
_pattern2:
	.db #0x00	; 0
	.db #0x00	; 0
	.db #0x7e	; 126
	.db #0x7e	; 126
	.db #0x40	; 64
	.db #0x40	; 64
	.db #0x54	; 84	'T'
	.db #0x54	; 84	'T'
	.db #0x48	; 72	'H'
	.db #0x48	; 72	'H'
	.db #0x54	; 84	'T'
	.db #0x54	; 84	'T'
	.db #0x40	; 64
	.db #0x40	; 64
	.db #0x00	; 0
	.db #0x00	; 0
_map:
	.db #0x00	; 0
	.db #0x20	; 32
	.area _CODE
	.area _CABS (ABS)
