                              1 ;--------------------------------------------------------
                              2 ; File Created by SDCC : FreeWare ANSI-C Compiler
                              3 ; Version 2.2.1 Wed Sep 04 01:39:03 2019
                              4 
                              5 ;--------------------------------------------------------
                              6 	.module lcc50840
                              7 	
                              8 ;--------------------------------------------------------
                              9 ; Public variables in this module
                             10 ;--------------------------------------------------------
                             11 	.globl _main
                             12 	.globl _checkInput
                             13 	.globl _map_collision
                             14 	.globl _init
                             15 	.globl _printf
                             16 	.globl _move_sprite
                             17 	.globl _set_sprite_tile
                             18 	.globl _set_sprite_data
                             19 	.globl _set_bkg_tiles
                             20 	.globl _set_bkg_data
                             21 	.globl _wait_vbl_done
                             22 	.globl _joypad
                             23 	.globl _onGround
                             24 	.globl _c3
                             25 	.globl _c2
                             26 	.globl _c1
                             27 	.globl _c0
                             28 	.globl __playerxy
                             29 	.globl _playerxy
                             30 	.globl _maptiles
                             31 	.globl _map
                             32 	.globl _main
                             33 	.globl _checkInput
                             34 	.globl _map_collision
                             35 	.globl _face
                             36 	.globl _init
                             37 ;--------------------------------------------------------
                             38 ; Externals used
                             39 ;--------------------------------------------------------
                             40 	.globl _IE_REG
                             41 	.globl _SVBK_REG
                             42 	.globl _OCPD_REG
                             43 	.globl _OCPS_REG
                             44 	.globl _BCPD_REG
                             45 	.globl _BCPS_REG
                             46 	.globl _RP_REG
                             47 	.globl _HDMA5_REG
                             48 	.globl _HDMA4_REG
                             49 	.globl _HDMA3_REG
                             50 	.globl _HDMA2_REG
                             51 	.globl _HDMA1_REG
                             52 	.globl _VBK_REG
                             53 	.globl _KEY1_REG
                             54 	.globl _WX_REG
                             55 	.globl _WY_REG
                             56 	.globl _OBP1_REG
                             57 	.globl _OBP0_REG
                             58 	.globl _BGP_REG
                             59 	.globl _DMA_REG
                             60 	.globl _LYC_REG
                             61 	.globl _LY_REG
                             62 	.globl _SCX_REG
                             63 	.globl _SCY_REG
                             64 	.globl _STAT_REG
                             65 	.globl _LCDC_REG
                             66 	.globl _NR52_REG
                             67 	.globl _NR51_REG
                             68 	.globl _NR50_REG
                             69 	.globl _NR44_REG
                             70 	.globl _NR43_REG
                             71 	.globl _NR42_REG
                             72 	.globl _NR41_REG
                             73 	.globl _NR34_REG
                             74 	.globl _NR33_REG
                             75 	.globl _NR32_REG
                             76 	.globl _NR31_REG
                             77 	.globl _NR30_REG
                             78 	.globl _NR24_REG
                             79 	.globl _NR23_REG
                             80 	.globl _NR22_REG
                             81 	.globl _NR21_REG
                             82 	.globl _NR14_REG
                             83 	.globl _NR13_REG
                             84 	.globl _NR12_REG
                             85 	.globl _NR11_REG
                             86 	.globl _NR10_REG
                             87 	.globl _IF_REG
                             88 	.globl _TAC_REG
                             89 	.globl _TMA_REG
                             90 	.globl _TIMA_REG
                             91 	.globl _DIV_REG
                             92 	.globl _SC_REG
                             93 	.globl _SB_REG
                             94 	.globl _P1_REG
                             95 	.globl __io_out
                             96 	.globl __io_in
                             97 	.globl __io_status
                             98 	.globl _sys_time
                             99 	.globl __cpu
                            100 ;--------------------------------------------------------
                            101 ; special function registers
                            102 ;--------------------------------------------------------
                            103 ;--------------------------------------------------------
                            104 ; special function bits 
                            105 ;--------------------------------------------------------
                            106 ;--------------------------------------------------------
                            107 ; internal ram data
                            108 ;--------------------------------------------------------
                            109 	.area _DATA
   0000                     110 _map::
   0000                     111 	.ds 380
   017C                     112 _maptiles::
   017C                     113 	.ds 64
   01BC                     114 _playerxy::
   01BC                     115 	.ds 4
   01C0                     116 __playerxy::
   01C0                     117 	.ds 4
   01C4                     118 _col_mapxy::
   01C4                     119 	.ds 360
   032C                     120 _c0::
   032C                     121 	.ds 1
   032D                     122 _c1::
   032D                     123 	.ds 1
   032E                     124 _c2::
   032E                     125 	.ds 1
   032F                     126 _c3::
   032F                     127 	.ds 1
   0330                     128 _velocityY::
   0330                     129 	.ds 1
   0331                     130 _onGround::
   0331                     131 	.ds 1
   0332                     132 _stepCounter::
   0332                     133 	.ds 1
                            134 ;--------------------------------------------------------
                            135 ; overlayable items in internal ram 
                            136 ;--------------------------------------------------------
                            137 	.area _OVERLAY
                            138 ;--------------------------------------------------------
                            139 ; indirectly addressable internal ram data
                            140 ;--------------------------------------------------------
                            141 	.area _ISEG
                            142 ;--------------------------------------------------------
                            143 ; bit data
                            144 ;--------------------------------------------------------
                            145 	.area _BSEG
                            146 ;--------------------------------------------------------
                            147 ; external ram data
                            148 ;--------------------------------------------------------
                            149 	.area _XSEG
                            150 ;--------------------------------------------------------
                            151 ; global & static initialisations
                            152 ;--------------------------------------------------------
                            153 	.area _GSINIT
                            154 	.area _GSFINAL
                            155 	.area _GSINIT
                            156 ;	main.c 251
                            157 ; genAssign (pointer)
   0000 11 00 00            158 	ld	de,#_map + 0
   0003 3E 03               159 	ld	a,#0x03
   0005 12                  160 	ld	(de),a
                            161 ; genPlus
                            162 ; genPlusIncr
   0006 11 01 00            163 	ld	de,#_map + 0 + 1
                            164 ; genAssign (pointer)
   0009 3E 03               165 	ld	a,#0x03
   000B 12                  166 	ld	(de),a
                            167 ; genPlus
                            168 ; genPlusIncr
   000C 11 02 00            169 	ld	de,#_map + 0 + 2
                            170 ; genAssign (pointer)
   000F 3E 03               171 	ld	a,#0x03
   0011 12                  172 	ld	(de),a
                            173 ; genPlus
                            174 ; genPlusIncr
   0012 11 03 00            175 	ld	de,#_map + 0 + 3
                            176 ; genAssign (pointer)
   0015 3E 03               177 	ld	a,#0x03
   0017 12                  178 	ld	(de),a
                            179 ; genPlus
                            180 ; genPlusIncr
   0018 11 04 00            181 	ld	de,#_map + 0 + 4
                            182 ; genAssign (pointer)
   001B 3E 03               183 	ld	a,#0x03
   001D 12                  184 	ld	(de),a
                            185 ; genPlus
                            186 ; genPlusIncr
   001E 11 05 00            187 	ld	de,#_map + 0 + 5
                            188 ; genAssign (pointer)
   0021 3E 03               189 	ld	a,#0x03
   0023 12                  190 	ld	(de),a
                            191 ; genPlus
                            192 ; genPlusIncr
   0024 11 06 00            193 	ld	de,#_map + 0 + 6
                            194 ; genAssign (pointer)
   0027 3E 03               195 	ld	a,#0x03
   0029 12                  196 	ld	(de),a
                            197 ; genPlus
                            198 ; genPlusIncr
   002A 11 07 00            199 	ld	de,#_map + 0 + 7
                            200 ; genAssign (pointer)
   002D 3E 03               201 	ld	a,#0x03
   002F 12                  202 	ld	(de),a
                            203 ; genPlus
                            204 ; genPlusIncr
   0030 11 08 00            205 	ld	de,#_map + 0 + 8
                            206 ; genAssign (pointer)
   0033 3E 03               207 	ld	a,#0x03
   0035 12                  208 	ld	(de),a
                            209 ; genPlus
                            210 ; genPlusIncr
   0036 11 09 00            211 	ld	de,#_map + 0 + 9
                            212 ; genAssign (pointer)
   0039 3E 03               213 	ld	a,#0x03
   003B 12                  214 	ld	(de),a
                            215 ; genPlus
                            216 ; genPlusIncr
   003C 11 0A 00            217 	ld	de,#_map + 0 + 10
                            218 ; genAssign (pointer)
   003F 3E 03               219 	ld	a,#0x03
   0041 12                  220 	ld	(de),a
                            221 ; genPlus
                            222 ; genPlusIncr
   0042 11 0B 00            223 	ld	de,#_map + 0 + 11
                            224 ; genAssign (pointer)
   0045 3E 03               225 	ld	a,#0x03
   0047 12                  226 	ld	(de),a
                            227 ; genPlus
                            228 ; genPlusIncr
   0048 11 0C 00            229 	ld	de,#_map + 0 + 12
                            230 ; genAssign (pointer)
   004B 3E 03               231 	ld	a,#0x03
   004D 12                  232 	ld	(de),a
                            233 ; genPlus
                            234 ; genPlusIncr
   004E 11 0D 00            235 	ld	de,#_map + 0 + 13
                            236 ; genAssign (pointer)
   0051 3E 03               237 	ld	a,#0x03
   0053 12                  238 	ld	(de),a
                            239 ; genPlus
                            240 ; genPlusIncr
   0054 11 0E 00            241 	ld	de,#_map + 0 + 14
                            242 ; genAssign (pointer)
   0057 3E 03               243 	ld	a,#0x03
   0059 12                  244 	ld	(de),a
                            245 ; genPlus
                            246 ; genPlusIncr
   005A 11 0F 00            247 	ld	de,#_map + 0 + 15
                            248 ; genAssign (pointer)
   005D 3E 03               249 	ld	a,#0x03
   005F 12                  250 	ld	(de),a
                            251 ; genPlus
                            252 ; genPlusIncr
   0060 11 10 00            253 	ld	de,#_map + 0 + 16
                            254 ; genAssign (pointer)
   0063 3E 03               255 	ld	a,#0x03
   0065 12                  256 	ld	(de),a
                            257 ; genPlus
                            258 ; genPlusIncr
   0066 11 11 00            259 	ld	de,#_map + 0 + 17
                            260 ; genAssign (pointer)
   0069 3E 03               261 	ld	a,#0x03
   006B 12                  262 	ld	(de),a
                            263 ; genPlus
                            264 ; genPlusIncr
   006C 11 12 00            265 	ld	de,#_map + 0 + 18
                            266 ; genAssign (pointer)
   006F 3E 03               267 	ld	a,#0x03
   0071 12                  268 	ld	(de),a
                            269 ; genPlus
                            270 ; genPlusIncr
   0072 11 13 00            271 	ld	de,#_map + 0 + 19
                            272 ; genAssign (pointer)
   0075 3E 03               273 	ld	a,#0x03
   0077 12                  274 	ld	(de),a
                            275 ; genPlus
                            276 ; genPlusIncr
   0078 11 14 00            277 	ld	de,#_map + 0 + 20
                            278 ; genAssign (pointer)
   007B 3E 01               279 	ld	a,#0x01
   007D 12                  280 	ld	(de),a
                            281 ; genPlus
                            282 ; genPlusIncr
   007E 11 15 00            283 	ld	de,#_map + 0 + 21
                            284 ; genAssign (pointer)
   0081 3E 01               285 	ld	a,#0x01
   0083 12                  286 	ld	(de),a
                            287 ; genPlus
                            288 ; genPlusIncr
   0084 11 16 00            289 	ld	de,#_map + 0 + 22
                            290 ; genAssign (pointer)
   0087 3E 01               291 	ld	a,#0x01
   0089 12                  292 	ld	(de),a
                            293 ; genPlus
                            294 ; genPlusIncr
   008A 11 17 00            295 	ld	de,#_map + 0 + 23
                            296 ; genAssign (pointer)
   008D 3E 01               297 	ld	a,#0x01
   008F 12                  298 	ld	(de),a
                            299 ; genPlus
                            300 ; genPlusIncr
   0090 11 18 00            301 	ld	de,#_map + 0 + 24
                            302 ; genAssign (pointer)
   0093 3E 01               303 	ld	a,#0x01
   0095 12                  304 	ld	(de),a
                            305 ; genPlus
                            306 ; genPlusIncr
   0096 11 19 00            307 	ld	de,#_map + 0 + 25
                            308 ; genAssign (pointer)
   0099 3E 01               309 	ld	a,#0x01
   009B 12                  310 	ld	(de),a
                            311 ; genPlus
                            312 ; genPlusIncr
   009C 11 1A 00            313 	ld	de,#_map + 0 + 26
                            314 ; genAssign (pointer)
   009F 3E 01               315 	ld	a,#0x01
   00A1 12                  316 	ld	(de),a
                            317 ; genPlus
                            318 ; genPlusIncr
   00A2 11 1B 00            319 	ld	de,#_map + 0 + 27
                            320 ; genAssign (pointer)
   00A5 3E 03               321 	ld	a,#0x03
   00A7 12                  322 	ld	(de),a
                            323 ; genPlus
                            324 ; genPlusIncr
   00A8 11 1C 00            325 	ld	de,#_map + 0 + 28
                            326 ; genAssign (pointer)
   00AB 3E 03               327 	ld	a,#0x03
   00AD 12                  328 	ld	(de),a
                            329 ; genPlus
                            330 ; genPlusIncr
   00AE 11 1D 00            331 	ld	de,#_map + 0 + 29
                            332 ; genAssign (pointer)
   00B1 3E 03               333 	ld	a,#0x03
   00B3 12                  334 	ld	(de),a
                            335 ; genPlus
                            336 ; genPlusIncr
   00B4 11 1E 00            337 	ld	de,#_map + 0 + 30
                            338 ; genAssign (pointer)
   00B7 3E 03               339 	ld	a,#0x03
   00B9 12                  340 	ld	(de),a
                            341 ; genPlus
                            342 ; genPlusIncr
   00BA 11 1F 00            343 	ld	de,#_map + 0 + 31
                            344 ; genAssign (pointer)
   00BD 3E 03               345 	ld	a,#0x03
   00BF 12                  346 	ld	(de),a
                            347 ; genPlus
                            348 ; genPlusIncr
   00C0 11 20 00            349 	ld	de,#_map + 0 + 32
                            350 ; genAssign (pointer)
   00C3 3E 03               351 	ld	a,#0x03
   00C5 12                  352 	ld	(de),a
                            353 ; genPlus
                            354 ; genPlusIncr
   00C6 11 21 00            355 	ld	de,#_map + 0 + 33
                            356 ; genAssign (pointer)
   00C9 3E 03               357 	ld	a,#0x03
   00CB 12                  358 	ld	(de),a
                            359 ; genPlus
                            360 ; genPlusIncr
   00CC 11 22 00            361 	ld	de,#_map + 0 + 34
                            362 ; genAssign (pointer)
   00CF 3E 03               363 	ld	a,#0x03
   00D1 12                  364 	ld	(de),a
                            365 ; genPlus
                            366 ; genPlusIncr
   00D2 11 23 00            367 	ld	de,#_map + 0 + 35
                            368 ; genAssign (pointer)
   00D5 3E 03               369 	ld	a,#0x03
   00D7 12                  370 	ld	(de),a
                            371 ; genPlus
                            372 ; genPlusIncr
   00D8 11 24 00            373 	ld	de,#_map + 0 + 36
                            374 ; genAssign (pointer)
   00DB 3E 03               375 	ld	a,#0x03
   00DD 12                  376 	ld	(de),a
                            377 ; genPlus
                            378 ; genPlusIncr
   00DE 11 25 00            379 	ld	de,#_map + 0 + 37
                            380 ; genAssign (pointer)
   00E1 3E 03               381 	ld	a,#0x03
   00E3 12                  382 	ld	(de),a
                            383 ; genPlus
                            384 ; genPlusIncr
   00E4 11 26 00            385 	ld	de,#_map + 0 + 38
                            386 ; genAssign (pointer)
   00E7 3E 03               387 	ld	a,#0x03
   00E9 12                  388 	ld	(de),a
                            389 ; genPlus
                            390 ; genPlusIncr
   00EA 11 27 00            391 	ld	de,#_map + 0 + 39
                            392 ; genAssign (pointer)
   00ED 3E 00               393 	ld	a,#0x00
   00EF 12                  394 	ld	(de),a
                            395 ; genPlus
                            396 ; genPlusIncr
   00F0 11 28 00            397 	ld	de,#_map + 0 + 40
                            398 ; genAssign (pointer)
   00F3 3E 00               399 	ld	a,#0x00
   00F5 12                  400 	ld	(de),a
                            401 ; genPlus
                            402 ; genPlusIncr
   00F6 11 29 00            403 	ld	de,#_map + 0 + 41
                            404 ; genAssign (pointer)
   00F9 3E 00               405 	ld	a,#0x00
   00FB 12                  406 	ld	(de),a
                            407 ; genPlus
                            408 ; genPlusIncr
   00FC 11 2A 00            409 	ld	de,#_map + 0 + 42
                            410 ; genAssign (pointer)
   00FF 3E 00               411 	ld	a,#0x00
   0101 12                  412 	ld	(de),a
                            413 ; genPlus
                            414 ; genPlusIncr
   0102 11 2B 00            415 	ld	de,#_map + 0 + 43
                            416 ; genAssign (pointer)
   0105 3E 00               417 	ld	a,#0x00
   0107 12                  418 	ld	(de),a
                            419 ; genPlus
                            420 ; genPlusIncr
   0108 11 2C 00            421 	ld	de,#_map + 0 + 44
                            422 ; genAssign (pointer)
   010B 3E 00               423 	ld	a,#0x00
   010D 12                  424 	ld	(de),a
                            425 ; genPlus
                            426 ; genPlusIncr
   010E 11 2D 00            427 	ld	de,#_map + 0 + 45
                            428 ; genAssign (pointer)
   0111 3E 00               429 	ld	a,#0x00
   0113 12                  430 	ld	(de),a
                            431 ; genPlus
                            432 ; genPlusIncr
   0114 11 2E 00            433 	ld	de,#_map + 0 + 46
                            434 ; genAssign (pointer)
   0117 3E 00               435 	ld	a,#0x00
   0119 12                  436 	ld	(de),a
                            437 ; genPlus
                            438 ; genPlusIncr
   011A 11 2F 00            439 	ld	de,#_map + 0 + 47
                            440 ; genAssign (pointer)
   011D 3E 00               441 	ld	a,#0x00
   011F 12                  442 	ld	(de),a
                            443 ; genPlus
                            444 ; genPlusIncr
   0120 11 30 00            445 	ld	de,#_map + 0 + 48
                            446 ; genAssign (pointer)
   0123 3E 00               447 	ld	a,#0x00
   0125 12                  448 	ld	(de),a
                            449 ; genPlus
                            450 ; genPlusIncr
   0126 11 31 00            451 	ld	de,#_map + 0 + 49
                            452 ; genAssign (pointer)
   0129 3E 00               453 	ld	a,#0x00
   012B 12                  454 	ld	(de),a
                            455 ; genPlus
                            456 ; genPlusIncr
   012C 11 32 00            457 	ld	de,#_map + 0 + 50
                            458 ; genAssign (pointer)
   012F 3E 00               459 	ld	a,#0x00
   0131 12                  460 	ld	(de),a
                            461 ; genPlus
                            462 ; genPlusIncr
   0132 11 33 00            463 	ld	de,#_map + 0 + 51
                            464 ; genAssign (pointer)
   0135 3E 00               465 	ld	a,#0x00
   0137 12                  466 	ld	(de),a
                            467 ; genPlus
                            468 ; genPlusIncr
   0138 11 34 00            469 	ld	de,#_map + 0 + 52
                            470 ; genAssign (pointer)
   013B 3E 00               471 	ld	a,#0x00
   013D 12                  472 	ld	(de),a
                            473 ; genPlus
                            474 ; genPlusIncr
   013E 11 35 00            475 	ld	de,#_map + 0 + 53
                            476 ; genAssign (pointer)
   0141 3E 01               477 	ld	a,#0x01
   0143 12                  478 	ld	(de),a
                            479 ; genPlus
                            480 ; genPlusIncr
   0144 11 36 00            481 	ld	de,#_map + 0 + 54
                            482 ; genAssign (pointer)
   0147 3E 01               483 	ld	a,#0x01
   0149 12                  484 	ld	(de),a
                            485 ; genPlus
                            486 ; genPlusIncr
   014A 11 37 00            487 	ld	de,#_map + 0 + 55
                            488 ; genAssign (pointer)
   014D 3E 01               489 	ld	a,#0x01
   014F 12                  490 	ld	(de),a
                            491 ; genPlus
                            492 ; genPlusIncr
   0150 11 38 00            493 	ld	de,#_map + 0 + 56
                            494 ; genAssign (pointer)
   0153 3E 01               495 	ld	a,#0x01
   0155 12                  496 	ld	(de),a
                            497 ; genPlus
                            498 ; genPlusIncr
   0156 11 39 00            499 	ld	de,#_map + 0 + 57
                            500 ; genAssign (pointer)
   0159 3E 01               501 	ld	a,#0x01
   015B 12                  502 	ld	(de),a
                            503 ; genPlus
                            504 ; genPlusIncr
   015C 11 3A 00            505 	ld	de,#_map + 0 + 58
                            506 ; genAssign (pointer)
   015F 3E 01               507 	ld	a,#0x01
   0161 12                  508 	ld	(de),a
                            509 ; genPlus
                            510 ; genPlusIncr
   0162 11 3B 00            511 	ld	de,#_map + 0 + 59
                            512 ; genAssign (pointer)
   0165 3E 01               513 	ld	a,#0x01
   0167 12                  514 	ld	(de),a
                            515 ; genPlus
                            516 ; genPlusIncr
   0168 11 3C 00            517 	ld	de,#_map + 0 + 60
                            518 ; genAssign (pointer)
   016B 3E 00               519 	ld	a,#0x00
   016D 12                  520 	ld	(de),a
                            521 ; genPlus
                            522 ; genPlusIncr
   016E 11 3D 00            523 	ld	de,#_map + 0 + 61
                            524 ; genAssign (pointer)
   0171 3E 00               525 	ld	a,#0x00
   0173 12                  526 	ld	(de),a
                            527 ; genPlus
                            528 ; genPlusIncr
   0174 11 3E 00            529 	ld	de,#_map + 0 + 62
                            530 ; genAssign (pointer)
   0177 3E 00               531 	ld	a,#0x00
   0179 12                  532 	ld	(de),a
                            533 ; genPlus
                            534 ; genPlusIncr
   017A 11 3F 00            535 	ld	de,#_map + 0 + 63
                            536 ; genAssign (pointer)
   017D 3E 00               537 	ld	a,#0x00
   017F 12                  538 	ld	(de),a
                            539 ; genPlus
                            540 ; genPlusIncr
   0180 11 40 00            541 	ld	de,#_map + 0 + 64
                            542 ; genAssign (pointer)
   0183 3E 00               543 	ld	a,#0x00
   0185 12                  544 	ld	(de),a
                            545 ; genPlus
                            546 ; genPlusIncr
   0186 11 41 00            547 	ld	de,#_map + 0 + 65
                            548 ; genAssign (pointer)
   0189 3E 00               549 	ld	a,#0x00
   018B 12                  550 	ld	(de),a
                            551 ; genPlus
                            552 ; genPlusIncr
   018C 11 42 00            553 	ld	de,#_map + 0 + 66
                            554 ; genAssign (pointer)
   018F 3E 00               555 	ld	a,#0x00
   0191 12                  556 	ld	(de),a
                            557 ; genPlus
                            558 ; genPlusIncr
   0192 11 43 00            559 	ld	de,#_map + 0 + 67
                            560 ; genAssign (pointer)
   0195 3E 00               561 	ld	a,#0x00
   0197 12                  562 	ld	(de),a
                            563 ; genPlus
                            564 ; genPlusIncr
   0198 11 44 00            565 	ld	de,#_map + 0 + 68
                            566 ; genAssign (pointer)
   019B 3E 00               567 	ld	a,#0x00
   019D 12                  568 	ld	(de),a
                            569 ; genPlus
                            570 ; genPlusIncr
   019E 11 45 00            571 	ld	de,#_map + 0 + 69
                            572 ; genAssign (pointer)
   01A1 3E 00               573 	ld	a,#0x00
   01A3 12                  574 	ld	(de),a
                            575 ; genPlus
                            576 ; genPlusIncr
   01A4 11 46 00            577 	ld	de,#_map + 0 + 70
                            578 ; genAssign (pointer)
   01A7 3E 00               579 	ld	a,#0x00
   01A9 12                  580 	ld	(de),a
                            581 ; genPlus
                            582 ; genPlusIncr
   01AA 11 47 00            583 	ld	de,#_map + 0 + 71
                            584 ; genAssign (pointer)
   01AD 3E 00               585 	ld	a,#0x00
   01AF 12                  586 	ld	(de),a
                            587 ; genPlus
                            588 ; genPlusIncr
   01B0 11 48 00            589 	ld	de,#_map + 0 + 72
                            590 ; genAssign (pointer)
   01B3 3E 01               591 	ld	a,#0x01
   01B5 12                  592 	ld	(de),a
                            593 ; genPlus
                            594 ; genPlusIncr
   01B6 11 49 00            595 	ld	de,#_map + 0 + 73
                            596 ; genAssign (pointer)
   01B9 3E 01               597 	ld	a,#0x01
   01BB 12                  598 	ld	(de),a
                            599 ; genPlus
                            600 ; genPlusIncr
   01BC 11 4A 00            601 	ld	de,#_map + 0 + 74
                            602 ; genAssign (pointer)
   01BF 3E 01               603 	ld	a,#0x01
   01C1 12                  604 	ld	(de),a
                            605 ; genPlus
                            606 ; genPlusIncr
   01C2 11 4B 00            607 	ld	de,#_map + 0 + 75
                            608 ; genAssign (pointer)
   01C5 3E 01               609 	ld	a,#0x01
   01C7 12                  610 	ld	(de),a
                            611 ; genPlus
                            612 ; genPlusIncr
   01C8 11 4C 00            613 	ld	de,#_map + 0 + 76
                            614 ; genAssign (pointer)
   01CB 3E 01               615 	ld	a,#0x01
   01CD 12                  616 	ld	(de),a
                            617 ; genPlus
                            618 ; genPlusIncr
   01CE 11 4D 00            619 	ld	de,#_map + 0 + 77
                            620 ; genAssign (pointer)
   01D1 3E 01               621 	ld	a,#0x01
   01D3 12                  622 	ld	(de),a
                            623 ; genPlus
                            624 ; genPlusIncr
   01D4 11 4E 00            625 	ld	de,#_map + 0 + 78
                            626 ; genAssign (pointer)
   01D7 3E 01               627 	ld	a,#0x01
   01D9 12                  628 	ld	(de),a
                            629 ; genPlus
                            630 ; genPlusIncr
   01DA 11 4F 00            631 	ld	de,#_map + 0 + 79
                            632 ; genAssign (pointer)
   01DD 3E 01               633 	ld	a,#0x01
   01DF 12                  634 	ld	(de),a
                            635 ; genPlus
                            636 ; genPlusIncr
   01E0 11 50 00            637 	ld	de,#_map + 0 + 80
                            638 ; genAssign (pointer)
   01E3 3E 00               639 	ld	a,#0x00
   01E5 12                  640 	ld	(de),a
                            641 ; genPlus
                            642 ; genPlusIncr
   01E6 11 51 00            643 	ld	de,#_map + 0 + 81
                            644 ; genAssign (pointer)
   01E9 3E 00               645 	ld	a,#0x00
   01EB 12                  646 	ld	(de),a
                            647 ; genPlus
                            648 ; genPlusIncr
   01EC 11 52 00            649 	ld	de,#_map + 0 + 82
                            650 ; genAssign (pointer)
   01EF 3E 00               651 	ld	a,#0x00
   01F1 12                  652 	ld	(de),a
                            653 ; genPlus
                            654 ; genPlusIncr
   01F2 11 53 00            655 	ld	de,#_map + 0 + 83
                            656 ; genAssign (pointer)
   01F5 3E 00               657 	ld	a,#0x00
   01F7 12                  658 	ld	(de),a
                            659 ; genPlus
                            660 ; genPlusIncr
   01F8 11 54 00            661 	ld	de,#_map + 0 + 84
                            662 ; genAssign (pointer)
   01FB 3E 00               663 	ld	a,#0x00
   01FD 12                  664 	ld	(de),a
                            665 ; genPlus
                            666 ; genPlusIncr
   01FE 11 55 00            667 	ld	de,#_map + 0 + 85
                            668 ; genAssign (pointer)
   0201 3E 00               669 	ld	a,#0x00
   0203 12                  670 	ld	(de),a
                            671 ; genPlus
                            672 ; genPlusIncr
   0204 11 56 00            673 	ld	de,#_map + 0 + 86
                            674 ; genAssign (pointer)
   0207 3E 00               675 	ld	a,#0x00
   0209 12                  676 	ld	(de),a
                            677 ; genPlus
                            678 ; genPlusIncr
   020A 11 57 00            679 	ld	de,#_map + 0 + 87
                            680 ; genAssign (pointer)
   020D 3E 01               681 	ld	a,#0x01
   020F 12                  682 	ld	(de),a
                            683 ; genPlus
                            684 ; genPlusIncr
   0210 11 58 00            685 	ld	de,#_map + 0 + 88
                            686 ; genAssign (pointer)
   0213 3E 01               687 	ld	a,#0x01
   0215 12                  688 	ld	(de),a
                            689 ; genPlus
                            690 ; genPlusIncr
   0216 11 59 00            691 	ld	de,#_map + 0 + 89
                            692 ; genAssign (pointer)
   0219 3E 01               693 	ld	a,#0x01
   021B 12                  694 	ld	(de),a
                            695 ; genPlus
                            696 ; genPlusIncr
   021C 11 5A 00            697 	ld	de,#_map + 0 + 90
                            698 ; genAssign (pointer)
   021F 3E 01               699 	ld	a,#0x01
   0221 12                  700 	ld	(de),a
                            701 ; genPlus
                            702 ; genPlusIncr
   0222 11 5B 00            703 	ld	de,#_map + 0 + 91
                            704 ; genAssign (pointer)
   0225 3E 01               705 	ld	a,#0x01
   0227 12                  706 	ld	(de),a
                            707 ; genPlus
                            708 ; genPlusIncr
   0228 11 5C 00            709 	ld	de,#_map + 0 + 92
                            710 ; genAssign (pointer)
   022B 3E 01               711 	ld	a,#0x01
   022D 12                  712 	ld	(de),a
                            713 ; genPlus
                            714 ; genPlusIncr
   022E 11 5D 00            715 	ld	de,#_map + 0 + 93
                            716 ; genAssign (pointer)
   0231 3E 01               717 	ld	a,#0x01
   0233 12                  718 	ld	(de),a
                            719 ; genPlus
                            720 ; genPlusIncr
   0234 11 5E 00            721 	ld	de,#_map + 0 + 94
                            722 ; genAssign (pointer)
   0237 3E 01               723 	ld	a,#0x01
   0239 12                  724 	ld	(de),a
                            725 ; genPlus
                            726 ; genPlusIncr
   023A 11 5F 00            727 	ld	de,#_map + 0 + 95
                            728 ; genAssign (pointer)
   023D 3E 01               729 	ld	a,#0x01
   023F 12                  730 	ld	(de),a
                            731 ; genPlus
                            732 ; genPlusIncr
   0240 11 60 00            733 	ld	de,#_map + 0 + 96
                            734 ; genAssign (pointer)
   0243 3E 01               735 	ld	a,#0x01
   0245 12                  736 	ld	(de),a
                            737 ; genPlus
                            738 ; genPlusIncr
   0246 11 61 00            739 	ld	de,#_map + 0 + 97
                            740 ; genAssign (pointer)
   0249 3E 01               741 	ld	a,#0x01
   024B 12                  742 	ld	(de),a
                            743 ; genPlus
                            744 ; genPlusIncr
   024C 11 62 00            745 	ld	de,#_map + 0 + 98
                            746 ; genAssign (pointer)
   024F 3E 01               747 	ld	a,#0x01
   0251 12                  748 	ld	(de),a
                            749 ; genPlus
                            750 ; genPlusIncr
   0252 11 63 00            751 	ld	de,#_map + 0 + 99
                            752 ; genAssign (pointer)
   0255 3E 01               753 	ld	a,#0x01
   0257 12                  754 	ld	(de),a
                            755 ; genPlus
                            756 ; genPlusIncr
   0258 11 64 00            757 	ld	de,#_map + 0 + 100
                            758 ; genAssign (pointer)
   025B 3E 01               759 	ld	a,#0x01
   025D 12                  760 	ld	(de),a
                            761 ; genPlus
                            762 ; genPlusIncr
   025E 11 65 00            763 	ld	de,#_map + 0 + 101
                            764 ; genAssign (pointer)
   0261 3E 01               765 	ld	a,#0x01
   0263 12                  766 	ld	(de),a
                            767 ; genPlus
                            768 ; genPlusIncr
   0264 11 66 00            769 	ld	de,#_map + 0 + 102
                            770 ; genAssign (pointer)
   0267 3E 01               771 	ld	a,#0x01
   0269 12                  772 	ld	(de),a
                            773 ; genPlus
                            774 ; genPlusIncr
   026A 11 67 00            775 	ld	de,#_map + 0 + 103
                            776 ; genAssign (pointer)
   026D 3E 00               777 	ld	a,#0x00
   026F 12                  778 	ld	(de),a
                            779 ; genPlus
                            780 ; genPlusIncr
   0270 11 68 00            781 	ld	de,#_map + 0 + 104
                            782 ; genAssign (pointer)
   0273 3E 00               783 	ld	a,#0x00
   0275 12                  784 	ld	(de),a
                            785 ; genPlus
                            786 ; genPlusIncr
   0276 11 69 00            787 	ld	de,#_map + 0 + 105
                            788 ; genAssign (pointer)
   0279 3E 00               789 	ld	a,#0x00
   027B 12                  790 	ld	(de),a
                            791 ; genPlus
                            792 ; genPlusIncr
   027C 11 6A 00            793 	ld	de,#_map + 0 + 106
                            794 ; genAssign (pointer)
   027F 3E 00               795 	ld	a,#0x00
   0281 12                  796 	ld	(de),a
                            797 ; genPlus
                            798 ; genPlusIncr
   0282 11 6B 00            799 	ld	de,#_map + 0 + 107
                            800 ; genAssign (pointer)
   0285 3E 00               801 	ld	a,#0x00
   0287 12                  802 	ld	(de),a
                            803 ; genPlus
                            804 ; genPlusIncr
   0288 11 6C 00            805 	ld	de,#_map + 0 + 108
                            806 ; genAssign (pointer)
   028B 3E 00               807 	ld	a,#0x00
   028D 12                  808 	ld	(de),a
                            809 ; genPlus
                            810 ; genPlusIncr
   028E 11 6D 00            811 	ld	de,#_map + 0 + 109
                            812 ; genAssign (pointer)
   0291 3E 00               813 	ld	a,#0x00
   0293 12                  814 	ld	(de),a
                            815 ; genPlus
                            816 ; genPlusIncr
   0294 11 6E 00            817 	ld	de,#_map + 0 + 110
                            818 ; genAssign (pointer)
   0297 3E 00               819 	ld	a,#0x00
   0299 12                  820 	ld	(de),a
                            821 ; genPlus
                            822 ; genPlusIncr
   029A 11 6F 00            823 	ld	de,#_map + 0 + 111
                            824 ; genAssign (pointer)
   029D 3E 00               825 	ld	a,#0x00
   029F 12                  826 	ld	(de),a
                            827 ; genPlus
                            828 ; genPlusIncr
   02A0 11 70 00            829 	ld	de,#_map + 0 + 112
                            830 ; genAssign (pointer)
   02A3 3E 00               831 	ld	a,#0x00
   02A5 12                  832 	ld	(de),a
                            833 ; genPlus
                            834 ; genPlusIncr
   02A6 11 71 00            835 	ld	de,#_map + 0 + 113
                            836 ; genAssign (pointer)
   02A9 3E 00               837 	ld	a,#0x00
   02AB 12                  838 	ld	(de),a
                            839 ; genPlus
                            840 ; genPlusIncr
   02AC 11 72 00            841 	ld	de,#_map + 0 + 114
                            842 ; genAssign (pointer)
   02AF 3E 00               843 	ld	a,#0x00
   02B1 12                  844 	ld	(de),a
                            845 ; genPlus
                            846 ; genPlusIncr
   02B2 11 73 00            847 	ld	de,#_map + 0 + 115
                            848 ; genAssign (pointer)
   02B5 3E 00               849 	ld	a,#0x00
   02B7 12                  850 	ld	(de),a
                            851 ; genPlus
                            852 ; genPlusIncr
   02B8 11 74 00            853 	ld	de,#_map + 0 + 116
                            854 ; genAssign (pointer)
   02BB 3E 00               855 	ld	a,#0x00
   02BD 12                  856 	ld	(de),a
                            857 ; genPlus
                            858 ; genPlusIncr
   02BE 11 75 00            859 	ld	de,#_map + 0 + 117
                            860 ; genAssign (pointer)
   02C1 3E 00               861 	ld	a,#0x00
   02C3 12                  862 	ld	(de),a
                            863 ; genPlus
                            864 ; genPlusIncr
   02C4 11 76 00            865 	ld	de,#_map + 0 + 118
                            866 ; genAssign (pointer)
   02C7 3E 00               867 	ld	a,#0x00
   02C9 12                  868 	ld	(de),a
                            869 ; genPlus
                            870 ; genPlusIncr
   02CA 11 77 00            871 	ld	de,#_map + 0 + 119
                            872 ; genAssign (pointer)
   02CD 3E 00               873 	ld	a,#0x00
   02CF 12                  874 	ld	(de),a
                            875 ; genPlus
                            876 ; genPlusIncr
   02D0 11 78 00            877 	ld	de,#_map + 0 + 120
                            878 ; genAssign (pointer)
   02D3 3E 01               879 	ld	a,#0x01
   02D5 12                  880 	ld	(de),a
                            881 ; genPlus
                            882 ; genPlusIncr
   02D6 11 79 00            883 	ld	de,#_map + 0 + 121
                            884 ; genAssign (pointer)
   02D9 3E 01               885 	ld	a,#0x01
   02DB 12                  886 	ld	(de),a
                            887 ; genPlus
                            888 ; genPlusIncr
   02DC 11 7A 00            889 	ld	de,#_map + 0 + 122
                            890 ; genAssign (pointer)
   02DF 3E 01               891 	ld	a,#0x01
   02E1 12                  892 	ld	(de),a
                            893 ; genPlus
                            894 ; genPlusIncr
   02E2 11 7B 00            895 	ld	de,#_map + 0 + 123
                            896 ; genAssign (pointer)
   02E5 3E 00               897 	ld	a,#0x00
   02E7 12                  898 	ld	(de),a
                            899 ; genPlus
                            900 ; genPlusIncr
   02E8 11 7C 00            901 	ld	de,#_map + 0 + 124
                            902 ; genAssign (pointer)
   02EB 3E 00               903 	ld	a,#0x00
   02ED 12                  904 	ld	(de),a
                            905 ; genPlus
                            906 ; genPlusIncr
   02EE 11 7D 00            907 	ld	de,#_map + 0 + 125
                            908 ; genAssign (pointer)
   02F1 3E 00               909 	ld	a,#0x00
   02F3 12                  910 	ld	(de),a
                            911 ; genPlus
                            912 ; genPlusIncr
   02F4 11 7E 00            913 	ld	de,#_map + 0 + 126
                            914 ; genAssign (pointer)
   02F7 3E 00               915 	ld	a,#0x00
   02F9 12                  916 	ld	(de),a
                            917 ; genPlus
                            918 ; genPlusIncr
   02FA 11 7F 00            919 	ld	de,#_map + 0 + 127
                            920 ; genAssign (pointer)
   02FD 3E 00               921 	ld	a,#0x00
   02FF 12                  922 	ld	(de),a
                            923 ; genPlus
                            924 ; genPlusIncr
   0300 11 80 00            925 	ld	de,#_map + 0 + 128
                            926 ; genAssign (pointer)
   0303 3E 00               927 	ld	a,#0x00
   0305 12                  928 	ld	(de),a
                            929 ; genPlus
                            930 ; genPlusIncr
   0306 11 81 00            931 	ld	de,#_map + 0 + 129
                            932 ; genAssign (pointer)
   0309 3E 00               933 	ld	a,#0x00
   030B 12                  934 	ld	(de),a
                            935 ; genPlus
                            936 ; genPlusIncr
   030C 11 82 00            937 	ld	de,#_map + 0 + 130
                            938 ; genAssign (pointer)
   030F 3E 00               939 	ld	a,#0x00
   0311 12                  940 	ld	(de),a
                            941 ; genPlus
                            942 ; genPlusIncr
   0312 11 83 00            943 	ld	de,#_map + 0 + 131
                            944 ; genAssign (pointer)
   0315 3E 00               945 	ld	a,#0x00
   0317 12                  946 	ld	(de),a
                            947 ; genPlus
                            948 ; genPlusIncr
   0318 11 84 00            949 	ld	de,#_map + 0 + 132
                            950 ; genAssign (pointer)
   031B 3E 00               951 	ld	a,#0x00
   031D 12                  952 	ld	(de),a
                            953 ; genPlus
                            954 ; genPlusIncr
   031E 11 85 00            955 	ld	de,#_map + 0 + 133
                            956 ; genAssign (pointer)
   0321 3E 00               957 	ld	a,#0x00
   0323 12                  958 	ld	(de),a
                            959 ; genPlus
                            960 ; genPlusIncr
   0324 11 86 00            961 	ld	de,#_map + 0 + 134
                            962 ; genAssign (pointer)
   0327 3E 00               963 	ld	a,#0x00
   0329 12                  964 	ld	(de),a
                            965 ; genPlus
                            966 ; genPlusIncr
   032A 11 87 00            967 	ld	de,#_map + 0 + 135
                            968 ; genAssign (pointer)
   032D 3E 00               969 	ld	a,#0x00
   032F 12                  970 	ld	(de),a
                            971 ; genPlus
                            972 ; genPlusIncr
   0330 11 88 00            973 	ld	de,#_map + 0 + 136
                            974 ; genAssign (pointer)
   0333 3E 00               975 	ld	a,#0x00
   0335 12                  976 	ld	(de),a
                            977 ; genPlus
                            978 ; genPlusIncr
   0336 11 89 00            979 	ld	de,#_map + 0 + 137
                            980 ; genAssign (pointer)
   0339 3E 00               981 	ld	a,#0x00
   033B 12                  982 	ld	(de),a
                            983 ; genPlus
                            984 ; genPlusIncr
   033C 11 8A 00            985 	ld	de,#_map + 0 + 138
                            986 ; genAssign (pointer)
   033F 3E 00               987 	ld	a,#0x00
   0341 12                  988 	ld	(de),a
                            989 ; genPlus
                            990 ; genPlusIncr
   0342 11 8B 00            991 	ld	de,#_map + 0 + 139
                            992 ; genAssign (pointer)
   0345 3E 00               993 	ld	a,#0x00
   0347 12                  994 	ld	(de),a
                            995 ; genPlus
                            996 ; genPlusIncr
   0348 11 8C 00            997 	ld	de,#_map + 0 + 140
                            998 ; genAssign (pointer)
   034B 3E 00               999 	ld	a,#0x00
   034D 12                 1000 	ld	(de),a
                           1001 ; genPlus
                           1002 ; genPlusIncr
   034E 11 8D 00           1003 	ld	de,#_map + 0 + 141
                           1004 ; genAssign (pointer)
   0351 3E 00              1005 	ld	a,#0x00
   0353 12                 1006 	ld	(de),a
                           1007 ; genPlus
                           1008 ; genPlusIncr
   0354 11 8E 00           1009 	ld	de,#_map + 0 + 142
                           1010 ; genAssign (pointer)
   0357 3E 00              1011 	ld	a,#0x00
   0359 12                 1012 	ld	(de),a
                           1013 ; genPlus
                           1014 ; genPlusIncr
   035A 11 8F 00           1015 	ld	de,#_map + 0 + 143
                           1016 ; genAssign (pointer)
   035D 3E 01              1017 	ld	a,#0x01
   035F 12                 1018 	ld	(de),a
                           1019 ; genPlus
                           1020 ; genPlusIncr
   0360 11 90 00           1021 	ld	de,#_map + 0 + 144
                           1022 ; genAssign (pointer)
   0363 3E 01              1023 	ld	a,#0x01
   0365 12                 1024 	ld	(de),a
                           1025 ; genPlus
                           1026 ; genPlusIncr
   0366 11 91 00           1027 	ld	de,#_map + 0 + 145
                           1028 ; genAssign (pointer)
   0369 3E 01              1029 	ld	a,#0x01
   036B 12                 1030 	ld	(de),a
                           1031 ; genPlus
                           1032 ; genPlusIncr
   036C 11 92 00           1033 	ld	de,#_map + 0 + 146
                           1034 ; genAssign (pointer)
   036F 3E 00              1035 	ld	a,#0x00
   0371 12                 1036 	ld	(de),a
                           1037 ; genPlus
                           1038 ; genPlusIncr
   0372 11 93 00           1039 	ld	de,#_map + 0 + 147
                           1040 ; genAssign (pointer)
   0375 3E 00              1041 	ld	a,#0x00
   0377 12                 1042 	ld	(de),a
                           1043 ; genPlus
                           1044 ; genPlusIncr
   0378 11 94 00           1045 	ld	de,#_map + 0 + 148
                           1046 ; genAssign (pointer)
   037B 3E 00              1047 	ld	a,#0x00
   037D 12                 1048 	ld	(de),a
                           1049 ; genPlus
                           1050 ; genPlusIncr
   037E 11 95 00           1051 	ld	de,#_map + 0 + 149
                           1052 ; genAssign (pointer)
   0381 3E 00              1053 	ld	a,#0x00
   0383 12                 1054 	ld	(de),a
                           1055 ; genPlus
                           1056 ; genPlusIncr
   0384 11 96 00           1057 	ld	de,#_map + 0 + 150
                           1058 ; genAssign (pointer)
   0387 3E 00              1059 	ld	a,#0x00
   0389 12                 1060 	ld	(de),a
                           1061 ; genPlus
                           1062 ; genPlusIncr
   038A 11 97 00           1063 	ld	de,#_map + 0 + 151
                           1064 ; genAssign (pointer)
   038D 3E 00              1065 	ld	a,#0x00
   038F 12                 1066 	ld	(de),a
                           1067 ; genPlus
                           1068 ; genPlusIncr
   0390 11 98 00           1069 	ld	de,#_map + 0 + 152
                           1070 ; genAssign (pointer)
   0393 3E 00              1071 	ld	a,#0x00
   0395 12                 1072 	ld	(de),a
                           1073 ; genPlus
                           1074 ; genPlusIncr
   0396 11 99 00           1075 	ld	de,#_map + 0 + 153
                           1076 ; genAssign (pointer)
   0399 3E 00              1077 	ld	a,#0x00
   039B 12                 1078 	ld	(de),a
                           1079 ; genPlus
                           1080 ; genPlusIncr
   039C 11 9A 00           1081 	ld	de,#_map + 0 + 154
                           1082 ; genAssign (pointer)
   039F 3E 00              1083 	ld	a,#0x00
   03A1 12                 1084 	ld	(de),a
                           1085 ; genPlus
                           1086 ; genPlusIncr
   03A2 11 9B 00           1087 	ld	de,#_map + 0 + 155
                           1088 ; genAssign (pointer)
   03A5 3E 00              1089 	ld	a,#0x00
   03A7 12                 1090 	ld	(de),a
                           1091 ; genPlus
                           1092 ; genPlusIncr
   03A8 11 9C 00           1093 	ld	de,#_map + 0 + 156
                           1094 ; genAssign (pointer)
   03AB 3E 00              1095 	ld	a,#0x00
   03AD 12                 1096 	ld	(de),a
                           1097 ; genPlus
                           1098 ; genPlusIncr
   03AE 11 9D 00           1099 	ld	de,#_map + 0 + 157
                           1100 ; genAssign (pointer)
   03B1 3E 00              1101 	ld	a,#0x00
   03B3 12                 1102 	ld	(de),a
                           1103 ; genPlus
                           1104 ; genPlusIncr
   03B4 11 9E 00           1105 	ld	de,#_map + 0 + 158
                           1106 ; genAssign (pointer)
   03B7 3E 00              1107 	ld	a,#0x00
   03B9 12                 1108 	ld	(de),a
                           1109 ; genPlus
                           1110 ; genPlusIncr
   03BA 11 9F 00           1111 	ld	de,#_map + 0 + 159
                           1112 ; genAssign (pointer)
   03BD 3E 00              1113 	ld	a,#0x00
   03BF 12                 1114 	ld	(de),a
                           1115 ; genPlus
                           1116 ; genPlusIncr
   03C0 11 A0 00           1117 	ld	de,#_map + 0 + 160
                           1118 ; genAssign (pointer)
   03C3 3E 00              1119 	ld	a,#0x00
   03C5 12                 1120 	ld	(de),a
                           1121 ; genPlus
                           1122 ; genPlusIncr
   03C6 11 A1 00           1123 	ld	de,#_map + 0 + 161
                           1124 ; genAssign (pointer)
   03C9 3E 00              1125 	ld	a,#0x00
   03CB 12                 1126 	ld	(de),a
                           1127 ; genPlus
                           1128 ; genPlusIncr
   03CC 11 A2 00           1129 	ld	de,#_map + 0 + 162
                           1130 ; genAssign (pointer)
   03CF 3E 00              1131 	ld	a,#0x00
   03D1 12                 1132 	ld	(de),a
                           1133 ; genPlus
                           1134 ; genPlusIncr
   03D2 11 A3 00           1135 	ld	de,#_map + 0 + 163
                           1136 ; genAssign (pointer)
   03D5 3E 01              1137 	ld	a,#0x01
   03D7 12                 1138 	ld	(de),a
                           1139 ; genPlus
                           1140 ; genPlusIncr
   03D8 11 A4 00           1141 	ld	de,#_map + 0 + 164
                           1142 ; genAssign (pointer)
   03DB 3E 01              1143 	ld	a,#0x01
   03DD 12                 1144 	ld	(de),a
                           1145 ; genPlus
                           1146 ; genPlusIncr
   03DE 11 A5 00           1147 	ld	de,#_map + 0 + 165
                           1148 ; genAssign (pointer)
   03E1 3E 01              1149 	ld	a,#0x01
   03E3 12                 1150 	ld	(de),a
                           1151 ; genPlus
                           1152 ; genPlusIncr
   03E4 11 A6 00           1153 	ld	de,#_map + 0 + 166
                           1154 ; genAssign (pointer)
   03E7 3E 00              1155 	ld	a,#0x00
   03E9 12                 1156 	ld	(de),a
                           1157 ; genPlus
                           1158 ; genPlusIncr
   03EA 11 A7 00           1159 	ld	de,#_map + 0 + 167
                           1160 ; genAssign (pointer)
   03ED 3E 01              1161 	ld	a,#0x01
   03EF 12                 1162 	ld	(de),a
                           1163 ; genPlus
                           1164 ; genPlusIncr
   03F0 11 A8 00           1165 	ld	de,#_map + 0 + 168
                           1166 ; genAssign (pointer)
   03F3 3E 01              1167 	ld	a,#0x01
   03F5 12                 1168 	ld	(de),a
                           1169 ; genPlus
                           1170 ; genPlusIncr
   03F6 11 A9 00           1171 	ld	de,#_map + 0 + 169
                           1172 ; genAssign (pointer)
   03F9 3E 00              1173 	ld	a,#0x00
   03FB 12                 1174 	ld	(de),a
                           1175 ; genPlus
                           1176 ; genPlusIncr
   03FC 11 AA 00           1177 	ld	de,#_map + 0 + 170
                           1178 ; genAssign (pointer)
   03FF 3E 00              1179 	ld	a,#0x00
   0401 12                 1180 	ld	(de),a
                           1181 ; genPlus
                           1182 ; genPlusIncr
   0402 11 AB 00           1183 	ld	de,#_map + 0 + 171
                           1184 ; genAssign (pointer)
   0405 3E 00              1185 	ld	a,#0x00
   0407 12                 1186 	ld	(de),a
                           1187 ; genPlus
                           1188 ; genPlusIncr
   0408 11 AC 00           1189 	ld	de,#_map + 0 + 172
                           1190 ; genAssign (pointer)
   040B 3E 00              1191 	ld	a,#0x00
   040D 12                 1192 	ld	(de),a
                           1193 ; genPlus
                           1194 ; genPlusIncr
   040E 11 AD 00           1195 	ld	de,#_map + 0 + 173
                           1196 ; genAssign (pointer)
   0411 3E 00              1197 	ld	a,#0x00
   0413 12                 1198 	ld	(de),a
                           1199 ; genPlus
                           1200 ; genPlusIncr
   0414 11 AE 00           1201 	ld	de,#_map + 0 + 174
                           1202 ; genAssign (pointer)
   0417 3E 00              1203 	ld	a,#0x00
   0419 12                 1204 	ld	(de),a
                           1205 ; genPlus
                           1206 ; genPlusIncr
   041A 11 AF 00           1207 	ld	de,#_map + 0 + 175
                           1208 ; genAssign (pointer)
   041D 3E 00              1209 	ld	a,#0x00
   041F 12                 1210 	ld	(de),a
                           1211 ; genPlus
                           1212 ; genPlusIncr
   0420 11 B0 00           1213 	ld	de,#_map + 0 + 176
                           1214 ; genAssign (pointer)
   0423 3E 00              1215 	ld	a,#0x00
   0425 12                 1216 	ld	(de),a
                           1217 ; genPlus
                           1218 ; genPlusIncr
   0426 11 B1 00           1219 	ld	de,#_map + 0 + 177
                           1220 ; genAssign (pointer)
   0429 3E 00              1221 	ld	a,#0x00
   042B 12                 1222 	ld	(de),a
                           1223 ; genPlus
                           1224 ; genPlusIncr
   042C 11 B2 00           1225 	ld	de,#_map + 0 + 178
                           1226 ; genAssign (pointer)
   042F 3E 00              1227 	ld	a,#0x00
   0431 12                 1228 	ld	(de),a
                           1229 ; genPlus
                           1230 ; genPlusIncr
   0432 11 B3 00           1231 	ld	de,#_map + 0 + 179
                           1232 ; genAssign (pointer)
   0435 3E 00              1233 	ld	a,#0x00
   0437 12                 1234 	ld	(de),a
                           1235 ; genPlus
                           1236 ; genPlusIncr
   0438 11 B4 00           1237 	ld	de,#_map + 0 + 180
                           1238 ; genAssign (pointer)
   043B 3E 00              1239 	ld	a,#0x00
   043D 12                 1240 	ld	(de),a
                           1241 ; genPlus
                           1242 ; genPlusIncr
   043E 11 B5 00           1243 	ld	de,#_map + 0 + 181
                           1244 ; genAssign (pointer)
   0441 3E 00              1245 	ld	a,#0x00
   0443 12                 1246 	ld	(de),a
                           1247 ; genPlus
                           1248 ; genPlusIncr
   0444 11 B6 00           1249 	ld	de,#_map + 0 + 182
                           1250 ; genAssign (pointer)
   0447 3E 00              1251 	ld	a,#0x00
   0449 12                 1252 	ld	(de),a
                           1253 ; genPlus
                           1254 ; genPlusIncr
   044A 11 B7 00           1255 	ld	de,#_map + 0 + 183
                           1256 ; genAssign (pointer)
   044D 3E 00              1257 	ld	a,#0x00
   044F 12                 1258 	ld	(de),a
                           1259 ; genPlus
                           1260 ; genPlusIncr
   0450 11 B8 00           1261 	ld	de,#_map + 0 + 184
                           1262 ; genAssign (pointer)
   0453 3E 00              1263 	ld	a,#0x00
   0455 12                 1264 	ld	(de),a
                           1265 ; genPlus
                           1266 ; genPlusIncr
   0456 11 B9 00           1267 	ld	de,#_map + 0 + 185
                           1268 ; genAssign (pointer)
   0459 3E 00              1269 	ld	a,#0x00
   045B 12                 1270 	ld	(de),a
                           1271 ; genPlus
                           1272 ; genPlusIncr
   045C 11 BA 00           1273 	ld	de,#_map + 0 + 186
                           1274 ; genAssign (pointer)
   045F 3E 00              1275 	ld	a,#0x00
   0461 12                 1276 	ld	(de),a
                           1277 ; genPlus
                           1278 ; genPlusIncr
   0462 11 BB 00           1279 	ld	de,#_map + 0 + 187
                           1280 ; genAssign (pointer)
   0465 3E 01              1281 	ld	a,#0x01
   0467 12                 1282 	ld	(de),a
                           1283 ; genPlus
                           1284 ; genPlusIncr
   0468 11 BC 00           1285 	ld	de,#_map + 0 + 188
                           1286 ; genAssign (pointer)
   046B 3E 01              1287 	ld	a,#0x01
   046D 12                 1288 	ld	(de),a
                           1289 ; genPlus
                           1290 ; genPlusIncr
   046E 11 BD 00           1291 	ld	de,#_map + 0 + 189
                           1292 ; genAssign (pointer)
   0471 3E 00              1293 	ld	a,#0x00
   0473 12                 1294 	ld	(de),a
                           1295 ; genPlus
                           1296 ; genPlusIncr
   0474 11 BE 00           1297 	ld	de,#_map + 0 + 190
                           1298 ; genAssign (pointer)
   0477 3E 01              1299 	ld	a,#0x01
   0479 12                 1300 	ld	(de),a
                           1301 ; genPlus
                           1302 ; genPlusIncr
   047A 11 BF 00           1303 	ld	de,#_map + 0 + 191
                           1304 ; genAssign (pointer)
   047D 3E 01              1305 	ld	a,#0x01
   047F 12                 1306 	ld	(de),a
                           1307 ; genPlus
                           1308 ; genPlusIncr
   0480 11 C0 00           1309 	ld	de,#_map + 0 + 192
                           1310 ; genAssign (pointer)
   0483 3E 00              1311 	ld	a,#0x00
   0485 12                 1312 	ld	(de),a
                           1313 ; genPlus
                           1314 ; genPlusIncr
   0486 11 C1 00           1315 	ld	de,#_map + 0 + 193
                           1316 ; genAssign (pointer)
   0489 3E 00              1317 	ld	a,#0x00
   048B 12                 1318 	ld	(de),a
                           1319 ; genPlus
                           1320 ; genPlusIncr
   048C 11 C2 00           1321 	ld	de,#_map + 0 + 194
                           1322 ; genAssign (pointer)
   048F 3E 00              1323 	ld	a,#0x00
   0491 12                 1324 	ld	(de),a
                           1325 ; genPlus
                           1326 ; genPlusIncr
   0492 11 C3 00           1327 	ld	de,#_map + 0 + 195
                           1328 ; genAssign (pointer)
   0495 3E 00              1329 	ld	a,#0x00
   0497 12                 1330 	ld	(de),a
                           1331 ; genPlus
                           1332 ; genPlusIncr
   0498 11 C4 00           1333 	ld	de,#_map + 0 + 196
                           1334 ; genAssign (pointer)
   049B 3E 00              1335 	ld	a,#0x00
   049D 12                 1336 	ld	(de),a
                           1337 ; genPlus
                           1338 ; genPlusIncr
   049E 11 C5 00           1339 	ld	de,#_map + 0 + 197
                           1340 ; genAssign (pointer)
   04A1 3E 00              1341 	ld	a,#0x00
   04A3 12                 1342 	ld	(de),a
                           1343 ; genPlus
                           1344 ; genPlusIncr
   04A4 11 C6 00           1345 	ld	de,#_map + 0 + 198
                           1346 ; genAssign (pointer)
   04A7 3E 00              1347 	ld	a,#0x00
   04A9 12                 1348 	ld	(de),a
                           1349 ; genPlus
                           1350 ; genPlusIncr
   04AA 11 C7 00           1351 	ld	de,#_map + 0 + 199
                           1352 ; genAssign (pointer)
   04AD 3E 00              1353 	ld	a,#0x00
   04AF 12                 1354 	ld	(de),a
                           1355 ; genPlus
                           1356 ; genPlusIncr
   04B0 11 C8 00           1357 	ld	de,#_map + 0 + 200
                           1358 ; genAssign (pointer)
   04B3 3E 00              1359 	ld	a,#0x00
   04B5 12                 1360 	ld	(de),a
                           1361 ; genPlus
                           1362 ; genPlusIncr
   04B6 11 C9 00           1363 	ld	de,#_map + 0 + 201
                           1364 ; genAssign (pointer)
   04B9 3E 00              1365 	ld	a,#0x00
   04BB 12                 1366 	ld	(de),a
                           1367 ; genPlus
                           1368 ; genPlusIncr
   04BC 11 CA 00           1369 	ld	de,#_map + 0 + 202
                           1370 ; genAssign (pointer)
   04BF 3E 00              1371 	ld	a,#0x00
   04C1 12                 1372 	ld	(de),a
                           1373 ; genPlus
                           1374 ; genPlusIncr
   04C2 11 CB 00           1375 	ld	de,#_map + 0 + 203
                           1376 ; genAssign (pointer)
   04C5 3E 00              1377 	ld	a,#0x00
   04C7 12                 1378 	ld	(de),a
                           1379 ; genPlus
                           1380 ; genPlusIncr
   04C8 11 CC 00           1381 	ld	de,#_map + 0 + 204
                           1382 ; genAssign (pointer)
   04CB 3E 00              1383 	ld	a,#0x00
   04CD 12                 1384 	ld	(de),a
                           1385 ; genPlus
                           1386 ; genPlusIncr
   04CE 11 CD 00           1387 	ld	de,#_map + 0 + 205
                           1388 ; genAssign (pointer)
   04D1 3E 00              1389 	ld	a,#0x00
   04D3 12                 1390 	ld	(de),a
                           1391 ; genPlus
                           1392 ; genPlusIncr
   04D4 11 CE 00           1393 	ld	de,#_map + 0 + 206
                           1394 ; genAssign (pointer)
   04D7 3E 00              1395 	ld	a,#0x00
   04D9 12                 1396 	ld	(de),a
                           1397 ; genPlus
                           1398 ; genPlusIncr
   04DA 11 CF 00           1399 	ld	de,#_map + 0 + 207
                           1400 ; genAssign (pointer)
   04DD 3E 00              1401 	ld	a,#0x00
   04DF 12                 1402 	ld	(de),a
                           1403 ; genPlus
                           1404 ; genPlusIncr
   04E0 11 D0 00           1405 	ld	de,#_map + 0 + 208
                           1406 ; genAssign (pointer)
   04E3 3E 00              1407 	ld	a,#0x00
   04E5 12                 1408 	ld	(de),a
                           1409 ; genPlus
                           1410 ; genPlusIncr
   04E6 11 D1 00           1411 	ld	de,#_map + 0 + 209
                           1412 ; genAssign (pointer)
   04E9 3E 00              1413 	ld	a,#0x00
   04EB 12                 1414 	ld	(de),a
                           1415 ; genPlus
                           1416 ; genPlusIncr
   04EC 11 D2 00           1417 	ld	de,#_map + 0 + 210
                           1418 ; genAssign (pointer)
   04EF 3E 01              1419 	ld	a,#0x01
   04F1 12                 1420 	ld	(de),a
                           1421 ; genPlus
                           1422 ; genPlusIncr
   04F2 11 D3 00           1423 	ld	de,#_map + 0 + 211
                           1424 ; genAssign (pointer)
   04F5 3E 01              1425 	ld	a,#0x01
   04F7 12                 1426 	ld	(de),a
                           1427 ; genPlus
                           1428 ; genPlusIncr
   04F8 11 D4 00           1429 	ld	de,#_map + 0 + 212
                           1430 ; genAssign (pointer)
   04FB 3E 00              1431 	ld	a,#0x00
   04FD 12                 1432 	ld	(de),a
                           1433 ; genPlus
                           1434 ; genPlusIncr
   04FE 11 D5 00           1435 	ld	de,#_map + 0 + 213
                           1436 ; genAssign (pointer)
   0501 3E 01              1437 	ld	a,#0x01
   0503 12                 1438 	ld	(de),a
                           1439 ; genPlus
                           1440 ; genPlusIncr
   0504 11 D6 00           1441 	ld	de,#_map + 0 + 214
                           1442 ; genAssign (pointer)
   0507 3E 01              1443 	ld	a,#0x01
   0509 12                 1444 	ld	(de),a
                           1445 ; genPlus
                           1446 ; genPlusIncr
   050A 11 D7 00           1447 	ld	de,#_map + 0 + 215
                           1448 ; genAssign (pointer)
   050D 3E 00              1449 	ld	a,#0x00
   050F 12                 1450 	ld	(de),a
                           1451 ; genPlus
                           1452 ; genPlusIncr
   0510 11 D8 00           1453 	ld	de,#_map + 0 + 216
                           1454 ; genAssign (pointer)
   0513 3E 01              1455 	ld	a,#0x01
   0515 12                 1456 	ld	(de),a
                           1457 ; genPlus
                           1458 ; genPlusIncr
   0516 11 D9 00           1459 	ld	de,#_map + 0 + 217
                           1460 ; genAssign (pointer)
   0519 3E 01              1461 	ld	a,#0x01
   051B 12                 1462 	ld	(de),a
                           1463 ; genPlus
                           1464 ; genPlusIncr
   051C 11 DA 00           1465 	ld	de,#_map + 0 + 218
                           1466 ; genAssign (pointer)
   051F 3E 00              1467 	ld	a,#0x00
   0521 12                 1468 	ld	(de),a
                           1469 ; genPlus
                           1470 ; genPlusIncr
   0522 11 DB 00           1471 	ld	de,#_map + 0 + 219
                           1472 ; genAssign (pointer)
   0525 3E 00              1473 	ld	a,#0x00
   0527 12                 1474 	ld	(de),a
                           1475 ; genPlus
                           1476 ; genPlusIncr
   0528 11 DC 00           1477 	ld	de,#_map + 0 + 220
                           1478 ; genAssign (pointer)
   052B 3E 00              1479 	ld	a,#0x00
   052D 12                 1480 	ld	(de),a
                           1481 ; genPlus
                           1482 ; genPlusIncr
   052E 11 DD 00           1483 	ld	de,#_map + 0 + 221
                           1484 ; genAssign (pointer)
   0531 3E 00              1485 	ld	a,#0x00
   0533 12                 1486 	ld	(de),a
                           1487 ; genPlus
                           1488 ; genPlusIncr
   0534 11 DE 00           1489 	ld	de,#_map + 0 + 222
                           1490 ; genAssign (pointer)
   0537 3E 00              1491 	ld	a,#0x00
   0539 12                 1492 	ld	(de),a
                           1493 ; genPlus
                           1494 ; genPlusIncr
   053A 11 DF 00           1495 	ld	de,#_map + 0 + 223
                           1496 ; genAssign (pointer)
   053D 3E 00              1497 	ld	a,#0x00
   053F 12                 1498 	ld	(de),a
                           1499 ; genPlus
                           1500 ; genPlusIncr
   0540 11 E0 00           1501 	ld	de,#_map + 0 + 224
                           1502 ; genAssign (pointer)
   0543 3E 00              1503 	ld	a,#0x00
   0545 12                 1504 	ld	(de),a
                           1505 ; genPlus
                           1506 ; genPlusIncr
   0546 11 E1 00           1507 	ld	de,#_map + 0 + 225
                           1508 ; genAssign (pointer)
   0549 3E 00              1509 	ld	a,#0x00
   054B 12                 1510 	ld	(de),a
                           1511 ; genPlus
                           1512 ; genPlusIncr
   054C 11 E2 00           1513 	ld	de,#_map + 0 + 226
                           1514 ; genAssign (pointer)
   054F 3E 00              1515 	ld	a,#0x00
   0551 12                 1516 	ld	(de),a
                           1517 ; genPlus
                           1518 ; genPlusIncr
   0552 11 E3 00           1519 	ld	de,#_map + 0 + 227
                           1520 ; genAssign (pointer)
   0555 3E 00              1521 	ld	a,#0x00
   0557 12                 1522 	ld	(de),a
                           1523 ; genPlus
                           1524 ; genPlusIncr
   0558 11 E4 00           1525 	ld	de,#_map + 0 + 228
                           1526 ; genAssign (pointer)
   055B 3E 00              1527 	ld	a,#0x00
   055D 12                 1528 	ld	(de),a
                           1529 ; genPlus
                           1530 ; genPlusIncr
   055E 11 E5 00           1531 	ld	de,#_map + 0 + 229
                           1532 ; genAssign (pointer)
   0561 3E 00              1533 	ld	a,#0x00
   0563 12                 1534 	ld	(de),a
                           1535 ; genPlus
                           1536 ; genPlusIncr
   0564 11 E6 00           1537 	ld	de,#_map + 0 + 230
                           1538 ; genAssign (pointer)
   0567 3E 00              1539 	ld	a,#0x00
   0569 12                 1540 	ld	(de),a
                           1541 ; genPlus
                           1542 ; genPlusIncr
   056A 11 E7 00           1543 	ld	de,#_map + 0 + 231
                           1544 ; genAssign (pointer)
   056D 3E 00              1545 	ld	a,#0x00
   056F 12                 1546 	ld	(de),a
                           1547 ; genPlus
                           1548 ; genPlusIncr
   0570 11 E8 00           1549 	ld	de,#_map + 0 + 232
                           1550 ; genAssign (pointer)
   0573 3E 00              1551 	ld	a,#0x00
   0575 12                 1552 	ld	(de),a
                           1553 ; genPlus
                           1554 ; genPlusIncr
   0576 11 E9 00           1555 	ld	de,#_map + 0 + 233
                           1556 ; genAssign (pointer)
   0579 3E 01              1557 	ld	a,#0x01
   057B 12                 1558 	ld	(de),a
                           1559 ; genPlus
                           1560 ; genPlusIncr
   057C 11 EA 00           1561 	ld	de,#_map + 0 + 234
                           1562 ; genAssign (pointer)
   057F 3E 01              1563 	ld	a,#0x01
   0581 12                 1564 	ld	(de),a
                           1565 ; genPlus
                           1566 ; genPlusIncr
   0582 11 EB 00           1567 	ld	de,#_map + 0 + 235
                           1568 ; genAssign (pointer)
   0585 3E 00              1569 	ld	a,#0x00
   0587 12                 1570 	ld	(de),a
                           1571 ; genPlus
                           1572 ; genPlusIncr
   0588 11 EC 00           1573 	ld	de,#_map + 0 + 236
                           1574 ; genAssign (pointer)
   058B 3E 01              1575 	ld	a,#0x01
   058D 12                 1576 	ld	(de),a
                           1577 ; genPlus
                           1578 ; genPlusIncr
   058E 11 ED 00           1579 	ld	de,#_map + 0 + 237
                           1580 ; genAssign (pointer)
   0591 3E 01              1581 	ld	a,#0x01
   0593 12                 1582 	ld	(de),a
                           1583 ; genPlus
                           1584 ; genPlusIncr
   0594 11 EE 00           1585 	ld	de,#_map + 0 + 238
                           1586 ; genAssign (pointer)
   0597 3E 00              1587 	ld	a,#0x00
   0599 12                 1588 	ld	(de),a
                           1589 ; genPlus
                           1590 ; genPlusIncr
   059A 11 EF 00           1591 	ld	de,#_map + 0 + 239
                           1592 ; genAssign (pointer)
   059D 3E 00              1593 	ld	a,#0x00
   059F 12                 1594 	ld	(de),a
                           1595 ; genPlus
                           1596 ; genPlusIncr
   05A0 11 F0 00           1597 	ld	de,#_map + 0 + 240
                           1598 ; genAssign (pointer)
   05A3 3E 00              1599 	ld	a,#0x00
   05A5 12                 1600 	ld	(de),a
                           1601 ; genPlus
                           1602 ; genPlusIncr
   05A6 11 F1 00           1603 	ld	de,#_map + 0 + 241
                           1604 ; genAssign (pointer)
   05A9 3E 00              1605 	ld	a,#0x00
   05AB 12                 1606 	ld	(de),a
                           1607 ; genPlus
                           1608 ; genPlusIncr
   05AC 11 F2 00           1609 	ld	de,#_map + 0 + 242
                           1610 ; genAssign (pointer)
   05AF 3E 00              1611 	ld	a,#0x00
   05B1 12                 1612 	ld	(de),a
                           1613 ; genPlus
                           1614 ; genPlusIncr
   05B2 11 F3 00           1615 	ld	de,#_map + 0 + 243
                           1616 ; genAssign (pointer)
   05B5 3E 00              1617 	ld	a,#0x00
   05B7 12                 1618 	ld	(de),a
                           1619 ; genPlus
                           1620 ; genPlusIncr
   05B8 11 F4 00           1621 	ld	de,#_map + 0 + 244
                           1622 ; genAssign (pointer)
   05BB 3E 00              1623 	ld	a,#0x00
   05BD 12                 1624 	ld	(de),a
                           1625 ; genPlus
                           1626 ; genPlusIncr
   05BE 11 F5 00           1627 	ld	de,#_map + 0 + 245
                           1628 ; genAssign (pointer)
   05C1 3E 00              1629 	ld	a,#0x00
   05C3 12                 1630 	ld	(de),a
                           1631 ; genPlus
                           1632 ; genPlusIncr
   05C4 11 F6 00           1633 	ld	de,#_map + 0 + 246
                           1634 ; genAssign (pointer)
   05C7 3E 00              1635 	ld	a,#0x00
   05C9 12                 1636 	ld	(de),a
                           1637 ; genPlus
                           1638 ; genPlusIncr
   05CA 11 F7 00           1639 	ld	de,#_map + 0 + 247
                           1640 ; genAssign (pointer)
   05CD 3E 00              1641 	ld	a,#0x00
   05CF 12                 1642 	ld	(de),a
                           1643 ; genPlus
                           1644 ; genPlusIncr
   05D0 11 F8 00           1645 	ld	de,#_map + 0 + 248
                           1646 ; genAssign (pointer)
   05D3 3E 00              1647 	ld	a,#0x00
   05D5 12                 1648 	ld	(de),a
                           1649 ; genPlus
                           1650 ; genPlusIncr
   05D6 11 F9 00           1651 	ld	de,#_map + 0 + 249
                           1652 ; genAssign (pointer)
   05D9 3E 00              1653 	ld	a,#0x00
   05DB 12                 1654 	ld	(de),a
                           1655 ; genPlus
                           1656 ; genPlusIncr
   05DC 11 FA 00           1657 	ld	de,#_map + 0 + 250
                           1658 ; genAssign (pointer)
   05DF 3E 00              1659 	ld	a,#0x00
   05E1 12                 1660 	ld	(de),a
                           1661 ; genPlus
                           1662 ; genPlusIncr
   05E2 11 FB 00           1663 	ld	de,#_map + 0 + 251
                           1664 ; genAssign (pointer)
   05E5 3E 00              1665 	ld	a,#0x00
   05E7 12                 1666 	ld	(de),a
                           1667 ; genPlus
                           1668 ; genPlusIncr
   05E8 11 FC 00           1669 	ld	de,#_map + 0 + 252
                           1670 ; genAssign (pointer)
   05EB 3E 00              1671 	ld	a,#0x00
   05ED 12                 1672 	ld	(de),a
                           1673 ; genPlus
                           1674 ; genPlusIncr
   05EE 11 FD 00           1675 	ld	de,#_map + 0 + 253
                           1676 ; genAssign (pointer)
   05F1 3E 00              1677 	ld	a,#0x00
   05F3 12                 1678 	ld	(de),a
                           1679 ; genPlus
                           1680 ; genPlusIncr
   05F4 11 FE 00           1681 	ld	de,#_map + 0 + 254
                           1682 ; genAssign (pointer)
   05F7 3E 00              1683 	ld	a,#0x00
   05F9 12                 1684 	ld	(de),a
                           1685 ; genPlus
                           1686 ; genPlusIncr
   05FA 11 FF 00           1687 	ld	de,#_map + 0 + 255
                           1688 ; genAssign (pointer)
   05FD 3E 00              1689 	ld	a,#0x00
   05FF 12                 1690 	ld	(de),a
                           1691 ; genPlus
                           1692 ; genPlusIncr
   0600 11 00 01           1693 	ld	de,#_map + 0 + 256
                           1694 ; genAssign (pointer)
   0603 3E 01              1695 	ld	a,#0x01
   0605 12                 1696 	ld	(de),a
                           1697 ; genPlus
                           1698 ; genPlusIncr
   0606 11 01 01           1699 	ld	de,#_map + 0 + 257
                           1700 ; genAssign (pointer)
   0609 3E 01              1701 	ld	a,#0x01
   060B 12                 1702 	ld	(de),a
                           1703 ; genPlus
                           1704 ; genPlusIncr
   060C 11 02 01           1705 	ld	de,#_map + 0 + 258
                           1706 ; genAssign (pointer)
   060F 3E 00              1707 	ld	a,#0x00
   0611 12                 1708 	ld	(de),a
                           1709 ; genPlus
                           1710 ; genPlusIncr
   0612 11 03 01           1711 	ld	de,#_map + 0 + 259
                           1712 ; genAssign (pointer)
   0615 3E 00              1713 	ld	a,#0x00
   0617 12                 1714 	ld	(de),a
                           1715 ; genPlus
                           1716 ; genPlusIncr
   0618 11 04 01           1717 	ld	de,#_map + 0 + 260
                           1718 ; genAssign (pointer)
   061B 3E 00              1719 	ld	a,#0x00
   061D 12                 1720 	ld	(de),a
                           1721 ; genPlus
                           1722 ; genPlusIncr
   061E 11 05 01           1723 	ld	de,#_map + 0 + 261
                           1724 ; genAssign (pointer)
   0621 3E 00              1725 	ld	a,#0x00
   0623 12                 1726 	ld	(de),a
                           1727 ; genPlus
                           1728 ; genPlusIncr
   0624 11 06 01           1729 	ld	de,#_map + 0 + 262
                           1730 ; genAssign (pointer)
   0627 3E 00              1731 	ld	a,#0x00
   0629 12                 1732 	ld	(de),a
                           1733 ; genPlus
                           1734 ; genPlusIncr
   062A 11 07 01           1735 	ld	de,#_map + 0 + 263
                           1736 ; genAssign (pointer)
   062D 3E 00              1737 	ld	a,#0x00
   062F 12                 1738 	ld	(de),a
                           1739 ; genPlus
                           1740 ; genPlusIncr
   0630 11 08 01           1741 	ld	de,#_map + 0 + 264
                           1742 ; genAssign (pointer)
   0633 3E 00              1743 	ld	a,#0x00
   0635 12                 1744 	ld	(de),a
                           1745 ; genPlus
                           1746 ; genPlusIncr
   0636 11 09 01           1747 	ld	de,#_map + 0 + 265
                           1748 ; genAssign (pointer)
   0639 3E 00              1749 	ld	a,#0x00
   063B 12                 1750 	ld	(de),a
                           1751 ; genPlus
                           1752 ; genPlusIncr
   063C 11 0A 01           1753 	ld	de,#_map + 0 + 266
                           1754 ; genAssign (pointer)
   063F 3E 00              1755 	ld	a,#0x00
   0641 12                 1756 	ld	(de),a
                           1757 ; genPlus
                           1758 ; genPlusIncr
   0642 11 0B 01           1759 	ld	de,#_map + 0 + 267
                           1760 ; genAssign (pointer)
   0645 3E 00              1761 	ld	a,#0x00
   0647 12                 1762 	ld	(de),a
                           1763 ; genPlus
                           1764 ; genPlusIncr
   0648 11 0C 01           1765 	ld	de,#_map + 0 + 268
                           1766 ; genAssign (pointer)
   064B 3E 00              1767 	ld	a,#0x00
   064D 12                 1768 	ld	(de),a
                           1769 ; genPlus
                           1770 ; genPlusIncr
   064E 11 0D 01           1771 	ld	de,#_map + 0 + 269
                           1772 ; genAssign (pointer)
   0651 3E 00              1773 	ld	a,#0x00
   0653 12                 1774 	ld	(de),a
                           1775 ; genPlus
                           1776 ; genPlusIncr
   0654 11 0E 01           1777 	ld	de,#_map + 0 + 270
                           1778 ; genAssign (pointer)
   0657 3E 00              1779 	ld	a,#0x00
   0659 12                 1780 	ld	(de),a
                           1781 ; genPlus
                           1782 ; genPlusIncr
   065A 11 0F 01           1783 	ld	de,#_map + 0 + 271
                           1784 ; genAssign (pointer)
   065D 3E 00              1785 	ld	a,#0x00
   065F 12                 1786 	ld	(de),a
                           1787 ; genPlus
                           1788 ; genPlusIncr
   0660 11 10 01           1789 	ld	de,#_map + 0 + 272
                           1790 ; genAssign (pointer)
   0663 3E 00              1791 	ld	a,#0x00
   0665 12                 1792 	ld	(de),a
                           1793 ; genPlus
                           1794 ; genPlusIncr
   0666 11 11 01           1795 	ld	de,#_map + 0 + 273
                           1796 ; genAssign (pointer)
   0669 3E 00              1797 	ld	a,#0x00
   066B 12                 1798 	ld	(de),a
                           1799 ; genPlus
                           1800 ; genPlusIncr
   066C 11 12 01           1801 	ld	de,#_map + 0 + 274
                           1802 ; genAssign (pointer)
   066F 3E 00              1803 	ld	a,#0x00
   0671 12                 1804 	ld	(de),a
                           1805 ; genPlus
                           1806 ; genPlusIncr
   0672 11 13 01           1807 	ld	de,#_map + 0 + 275
                           1808 ; genAssign (pointer)
   0675 3E 00              1809 	ld	a,#0x00
   0677 12                 1810 	ld	(de),a
                           1811 ; genPlus
                           1812 ; genPlusIncr
   0678 11 14 01           1813 	ld	de,#_map + 0 + 276
                           1814 ; genAssign (pointer)
   067B 3E 00              1815 	ld	a,#0x00
   067D 12                 1816 	ld	(de),a
                           1817 ; genPlus
                           1818 ; genPlusIncr
   067E 11 15 01           1819 	ld	de,#_map + 0 + 277
                           1820 ; genAssign (pointer)
   0681 3E 00              1821 	ld	a,#0x00
   0683 12                 1822 	ld	(de),a
                           1823 ; genPlus
                           1824 ; genPlusIncr
   0684 11 16 01           1825 	ld	de,#_map + 0 + 278
                           1826 ; genAssign (pointer)
   0687 3E 00              1827 	ld	a,#0x00
   0689 12                 1828 	ld	(de),a
                           1829 ; genPlus
                           1830 ; genPlusIncr
   068A 11 17 01           1831 	ld	de,#_map + 0 + 279
                           1832 ; genAssign (pointer)
   068D 3E 00              1833 	ld	a,#0x00
   068F 12                 1834 	ld	(de),a
                           1835 ; genPlus
                           1836 ; genPlusIncr
   0690 11 18 01           1837 	ld	de,#_map + 0 + 280
                           1838 ; genAssign (pointer)
   0693 3E 00              1839 	ld	a,#0x00
   0695 12                 1840 	ld	(de),a
                           1841 ; genPlus
                           1842 ; genPlusIncr
   0696 11 19 01           1843 	ld	de,#_map + 0 + 281
                           1844 ; genAssign (pointer)
   0699 3E 00              1845 	ld	a,#0x00
   069B 12                 1846 	ld	(de),a
                           1847 ; genPlus
                           1848 ; genPlusIncr
   069C 11 1A 01           1849 	ld	de,#_map + 0 + 282
                           1850 ; genAssign (pointer)
   069F 3E 01              1851 	ld	a,#0x01
   06A1 12                 1852 	ld	(de),a
                           1853 ; genPlus
                           1854 ; genPlusIncr
   06A2 11 1B 01           1855 	ld	de,#_map + 0 + 283
                           1856 ; genAssign (pointer)
   06A5 3E 01              1857 	ld	a,#0x01
   06A7 12                 1858 	ld	(de),a
                           1859 ; genPlus
                           1860 ; genPlusIncr
   06A8 11 1C 01           1861 	ld	de,#_map + 0 + 284
                           1862 ; genAssign (pointer)
   06AB 3E 01              1863 	ld	a,#0x01
   06AD 12                 1864 	ld	(de),a
                           1865 ; genPlus
                           1866 ; genPlusIncr
   06AE 11 1D 01           1867 	ld	de,#_map + 0 + 285
                           1868 ; genAssign (pointer)
   06B1 3E 00              1869 	ld	a,#0x00
   06B3 12                 1870 	ld	(de),a
                           1871 ; genPlus
                           1872 ; genPlusIncr
   06B4 11 1E 01           1873 	ld	de,#_map + 0 + 286
                           1874 ; genAssign (pointer)
   06B7 3E 00              1875 	ld	a,#0x00
   06B9 12                 1876 	ld	(de),a
                           1877 ; genPlus
                           1878 ; genPlusIncr
   06BA 11 1F 01           1879 	ld	de,#_map + 0 + 287
                           1880 ; genAssign (pointer)
   06BD 3E 00              1881 	ld	a,#0x00
   06BF 12                 1882 	ld	(de),a
                           1883 ; genPlus
                           1884 ; genPlusIncr
   06C0 11 20 01           1885 	ld	de,#_map + 0 + 288
                           1886 ; genAssign (pointer)
   06C3 3E 00              1887 	ld	a,#0x00
   06C5 12                 1888 	ld	(de),a
                           1889 ; genPlus
                           1890 ; genPlusIncr
   06C6 11 21 01           1891 	ld	de,#_map + 0 + 289
                           1892 ; genAssign (pointer)
   06C9 3E 00              1893 	ld	a,#0x00
   06CB 12                 1894 	ld	(de),a
                           1895 ; genPlus
                           1896 ; genPlusIncr
   06CC 11 22 01           1897 	ld	de,#_map + 0 + 290
                           1898 ; genAssign (pointer)
   06CF 3E 00              1899 	ld	a,#0x00
   06D1 12                 1900 	ld	(de),a
                           1901 ; genPlus
                           1902 ; genPlusIncr
   06D2 11 23 01           1903 	ld	de,#_map + 0 + 291
                           1904 ; genAssign (pointer)
   06D5 3E 00              1905 	ld	a,#0x00
   06D7 12                 1906 	ld	(de),a
                           1907 ; genPlus
                           1908 ; genPlusIncr
   06D8 11 24 01           1909 	ld	de,#_map + 0 + 292
                           1910 ; genAssign (pointer)
   06DB 3E 00              1911 	ld	a,#0x00
   06DD 12                 1912 	ld	(de),a
                           1913 ; genPlus
                           1914 ; genPlusIncr
   06DE 11 25 01           1915 	ld	de,#_map + 0 + 293
                           1916 ; genAssign (pointer)
   06E1 3E 00              1917 	ld	a,#0x00
   06E3 12                 1918 	ld	(de),a
                           1919 ; genPlus
                           1920 ; genPlusIncr
   06E4 11 26 01           1921 	ld	de,#_map + 0 + 294
                           1922 ; genAssign (pointer)
   06E7 3E 00              1923 	ld	a,#0x00
   06E9 12                 1924 	ld	(de),a
                           1925 ; genPlus
                           1926 ; genPlusIncr
   06EA 11 27 01           1927 	ld	de,#_map + 0 + 295
                           1928 ; genAssign (pointer)
   06ED 3E 00              1929 	ld	a,#0x00
   06EF 12                 1930 	ld	(de),a
                           1931 ; genPlus
                           1932 ; genPlusIncr
   06F0 11 28 01           1933 	ld	de,#_map + 0 + 296
                           1934 ; genAssign (pointer)
   06F3 3E 00              1935 	ld	a,#0x00
   06F5 12                 1936 	ld	(de),a
                           1937 ; genPlus
                           1938 ; genPlusIncr
   06F6 11 29 01           1939 	ld	de,#_map + 0 + 297
                           1940 ; genAssign (pointer)
   06F9 3E 00              1941 	ld	a,#0x00
   06FB 12                 1942 	ld	(de),a
                           1943 ; genPlus
                           1944 ; genPlusIncr
   06FC 11 2A 01           1945 	ld	de,#_map + 0 + 298
                           1946 ; genAssign (pointer)
   06FF 3E 00              1947 	ld	a,#0x00
   0701 12                 1948 	ld	(de),a
                           1949 ; genPlus
                           1950 ; genPlusIncr
   0702 11 2B 01           1951 	ld	de,#_map + 0 + 299
                           1952 ; genAssign (pointer)
   0705 3E 00              1953 	ld	a,#0x00
   0707 12                 1954 	ld	(de),a
                           1955 ; genPlus
                           1956 ; genPlusIncr
   0708 11 2C 01           1957 	ld	de,#_map + 0 + 300
                           1958 ; genAssign (pointer)
   070B 3E 01              1959 	ld	a,#0x01
   070D 12                 1960 	ld	(de),a
                           1961 ; genPlus
                           1962 ; genPlusIncr
   070E 11 2D 01           1963 	ld	de,#_map + 0 + 301
                           1964 ; genAssign (pointer)
   0711 3E 01              1965 	ld	a,#0x01
   0713 12                 1966 	ld	(de),a
                           1967 ; genPlus
                           1968 ; genPlusIncr
   0714 11 2E 01           1969 	ld	de,#_map + 0 + 302
                           1970 ; genAssign (pointer)
   0717 3E 01              1971 	ld	a,#0x01
   0719 12                 1972 	ld	(de),a
                           1973 ; genPlus
                           1974 ; genPlusIncr
   071A 11 2F 01           1975 	ld	de,#_map + 0 + 303
                           1976 ; genAssign (pointer)
   071D 3E 01              1977 	ld	a,#0x01
   071F 12                 1978 	ld	(de),a
                           1979 ; genPlus
                           1980 ; genPlusIncr
   0720 11 30 01           1981 	ld	de,#_map + 0 + 304
                           1982 ; genAssign (pointer)
   0723 3E 01              1983 	ld	a,#0x01
   0725 12                 1984 	ld	(de),a
                           1985 ; genPlus
                           1986 ; genPlusIncr
   0726 11 31 01           1987 	ld	de,#_map + 0 + 305
                           1988 ; genAssign (pointer)
   0729 3E 01              1989 	ld	a,#0x01
   072B 12                 1990 	ld	(de),a
                           1991 ; genPlus
                           1992 ; genPlusIncr
   072C 11 32 01           1993 	ld	de,#_map + 0 + 306
                           1994 ; genAssign (pointer)
   072F 3E 01              1995 	ld	a,#0x01
   0731 12                 1996 	ld	(de),a
                           1997 ; genPlus
                           1998 ; genPlusIncr
   0732 11 33 01           1999 	ld	de,#_map + 0 + 307
                           2000 ; genAssign (pointer)
   0735 3E 01              2001 	ld	a,#0x01
   0737 12                 2002 	ld	(de),a
                           2003 ; genPlus
                           2004 ; genPlusIncr
   0738 11 34 01           2005 	ld	de,#_map + 0 + 308
                           2006 ; genAssign (pointer)
   073B 3E 01              2007 	ld	a,#0x01
   073D 12                 2008 	ld	(de),a
                           2009 ; genPlus
                           2010 ; genPlusIncr
   073E 11 35 01           2011 	ld	de,#_map + 0 + 309
                           2012 ; genAssign (pointer)
   0741 3E 01              2013 	ld	a,#0x01
   0743 12                 2014 	ld	(de),a
                           2015 ; genPlus
                           2016 ; genPlusIncr
   0744 11 36 01           2017 	ld	de,#_map + 0 + 310
                           2018 ; genAssign (pointer)
   0747 3E 01              2019 	ld	a,#0x01
   0749 12                 2020 	ld	(de),a
                           2021 ; genPlus
                           2022 ; genPlusIncr
   074A 11 37 01           2023 	ld	de,#_map + 0 + 311
                           2024 ; genAssign (pointer)
   074D 3E 01              2025 	ld	a,#0x01
   074F 12                 2026 	ld	(de),a
                           2027 ; genPlus
                           2028 ; genPlusIncr
   0750 11 38 01           2029 	ld	de,#_map + 0 + 312
                           2030 ; genAssign (pointer)
   0753 3E 01              2031 	ld	a,#0x01
   0755 12                 2032 	ld	(de),a
                           2033 ; genPlus
                           2034 ; genPlusIncr
   0756 11 39 01           2035 	ld	de,#_map + 0 + 313
                           2036 ; genAssign (pointer)
   0759 3E 01              2037 	ld	a,#0x01
   075B 12                 2038 	ld	(de),a
                           2039 ; genPlus
                           2040 ; genPlusIncr
   075C 11 3A 01           2041 	ld	de,#_map + 0 + 314
                           2042 ; genAssign (pointer)
   075F 3E 01              2043 	ld	a,#0x01
   0761 12                 2044 	ld	(de),a
                           2045 ; genPlus
                           2046 ; genPlusIncr
   0762 11 3B 01           2047 	ld	de,#_map + 0 + 315
                           2048 ; genAssign (pointer)
   0765 3E 00              2049 	ld	a,#0x00
   0767 12                 2050 	ld	(de),a
                           2051 ; genPlus
                           2052 ; genPlusIncr
   0768 11 3C 01           2053 	ld	de,#_map + 0 + 316
                           2054 ; genAssign (pointer)
   076B 3E 01              2055 	ld	a,#0x01
   076D 12                 2056 	ld	(de),a
                           2057 ; genPlus
                           2058 ; genPlusIncr
   076E 11 3D 01           2059 	ld	de,#_map + 0 + 317
                           2060 ; genAssign (pointer)
   0771 3E 01              2061 	ld	a,#0x01
   0773 12                 2062 	ld	(de),a
                           2063 ; genPlus
                           2064 ; genPlusIncr
   0774 11 3E 01           2065 	ld	de,#_map + 0 + 318
                           2066 ; genAssign (pointer)
   0777 3E 01              2067 	ld	a,#0x01
   0779 12                 2068 	ld	(de),a
                           2069 ; genPlus
                           2070 ; genPlusIncr
   077A 11 3F 01           2071 	ld	de,#_map + 0 + 319
                           2072 ; genAssign (pointer)
   077D 3E 00              2073 	ld	a,#0x00
   077F 12                 2074 	ld	(de),a
                           2075 ; genPlus
                           2076 ; genPlusIncr
   0780 11 40 01           2077 	ld	de,#_map + 0 + 320
                           2078 ; genAssign (pointer)
   0783 3E 03              2079 	ld	a,#0x03
   0785 12                 2080 	ld	(de),a
                           2081 ; genPlus
                           2082 ; genPlusIncr
   0786 11 41 01           2083 	ld	de,#_map + 0 + 321
                           2084 ; genAssign (pointer)
   0789 3E 03              2085 	ld	a,#0x03
   078B 12                 2086 	ld	(de),a
                           2087 ; genPlus
                           2088 ; genPlusIncr
   078C 11 42 01           2089 	ld	de,#_map + 0 + 322
                           2090 ; genAssign (pointer)
   078F 3E 03              2091 	ld	a,#0x03
   0791 12                 2092 	ld	(de),a
                           2093 ; genPlus
                           2094 ; genPlusIncr
   0792 11 43 01           2095 	ld	de,#_map + 0 + 323
                           2096 ; genAssign (pointer)
   0795 3E 03              2097 	ld	a,#0x03
   0797 12                 2098 	ld	(de),a
                           2099 ; genPlus
                           2100 ; genPlusIncr
   0798 11 44 01           2101 	ld	de,#_map + 0 + 324
                           2102 ; genAssign (pointer)
   079B 3E 03              2103 	ld	a,#0x03
   079D 12                 2104 	ld	(de),a
                           2105 ; genPlus
                           2106 ; genPlusIncr
   079E 11 45 01           2107 	ld	de,#_map + 0 + 325
                           2108 ; genAssign (pointer)
   07A1 3E 03              2109 	ld	a,#0x03
   07A3 12                 2110 	ld	(de),a
                           2111 ; genPlus
                           2112 ; genPlusIncr
   07A4 11 46 01           2113 	ld	de,#_map + 0 + 326
                           2114 ; genAssign (pointer)
   07A7 3E 03              2115 	ld	a,#0x03
   07A9 12                 2116 	ld	(de),a
                           2117 ; genPlus
                           2118 ; genPlusIncr
   07AA 11 47 01           2119 	ld	de,#_map + 0 + 327
                           2120 ; genAssign (pointer)
   07AD 3E 03              2121 	ld	a,#0x03
   07AF 12                 2122 	ld	(de),a
                           2123 ; genPlus
                           2124 ; genPlusIncr
   07B0 11 48 01           2125 	ld	de,#_map + 0 + 328
                           2126 ; genAssign (pointer)
   07B3 3E 03              2127 	ld	a,#0x03
   07B5 12                 2128 	ld	(de),a
                           2129 ; genPlus
                           2130 ; genPlusIncr
   07B6 11 49 01           2131 	ld	de,#_map + 0 + 329
                           2132 ; genAssign (pointer)
   07B9 3E 03              2133 	ld	a,#0x03
   07BB 12                 2134 	ld	(de),a
                           2135 ; genPlus
                           2136 ; genPlusIncr
   07BC 11 4A 01           2137 	ld	de,#_map + 0 + 330
                           2138 ; genAssign (pointer)
   07BF 3E 03              2139 	ld	a,#0x03
   07C1 12                 2140 	ld	(de),a
                           2141 ; genPlus
                           2142 ; genPlusIncr
   07C2 11 4B 01           2143 	ld	de,#_map + 0 + 331
                           2144 ; genAssign (pointer)
   07C5 3E 03              2145 	ld	a,#0x03
   07C7 12                 2146 	ld	(de),a
                           2147 ; genPlus
                           2148 ; genPlusIncr
   07C8 11 4C 01           2149 	ld	de,#_map + 0 + 332
                           2150 ; genAssign (pointer)
   07CB 3E 03              2151 	ld	a,#0x03
   07CD 12                 2152 	ld	(de),a
                           2153 ; genPlus
                           2154 ; genPlusIncr
   07CE 11 4D 01           2155 	ld	de,#_map + 0 + 333
                           2156 ; genAssign (pointer)
   07D1 3E 03              2157 	ld	a,#0x03
   07D3 12                 2158 	ld	(de),a
                           2159 ; genPlus
                           2160 ; genPlusIncr
   07D4 11 4E 01           2161 	ld	de,#_map + 0 + 334
                           2162 ; genAssign (pointer)
   07D7 3E 03              2163 	ld	a,#0x03
   07D9 12                 2164 	ld	(de),a
                           2165 ; genPlus
                           2166 ; genPlusIncr
   07DA 11 4F 01           2167 	ld	de,#_map + 0 + 335
                           2168 ; genAssign (pointer)
   07DD 3E 00              2169 	ld	a,#0x00
   07DF 12                 2170 	ld	(de),a
                           2171 ; genPlus
                           2172 ; genPlusIncr
   07E0 11 50 01           2173 	ld	de,#_map + 0 + 336
                           2174 ; genAssign (pointer)
   07E3 3E 00              2175 	ld	a,#0x00
   07E5 12                 2176 	ld	(de),a
                           2177 ; genPlus
                           2178 ; genPlusIncr
   07E6 11 51 01           2179 	ld	de,#_map + 0 + 337
                           2180 ; genAssign (pointer)
   07E9 3E 00              2181 	ld	a,#0x00
   07EB 12                 2182 	ld	(de),a
                           2183 ; genPlus
                           2184 ; genPlusIncr
   07EC 11 52 01           2185 	ld	de,#_map + 0 + 338
                           2186 ; genAssign (pointer)
   07EF 3E 00              2187 	ld	a,#0x00
   07F1 12                 2188 	ld	(de),a
                           2189 ; genPlus
                           2190 ; genPlusIncr
   07F2 11 53 01           2191 	ld	de,#_map + 0 + 339
                           2192 ; genAssign (pointer)
   07F5 3E 00              2193 	ld	a,#0x00
   07F7 12                 2194 	ld	(de),a
                           2195 ; genPlus
                           2196 ; genPlusIncr
   07F8 11 54 01           2197 	ld	de,#_map + 0 + 340
                           2198 ; genAssign (pointer)
   07FB 3E 00              2199 	ld	a,#0x00
   07FD 12                 2200 	ld	(de),a
                           2201 ; genPlus
                           2202 ; genPlusIncr
   07FE 11 55 01           2203 	ld	de,#_map + 0 + 341
                           2204 ; genAssign (pointer)
   0801 3E 00              2205 	ld	a,#0x00
   0803 12                 2206 	ld	(de),a
                           2207 ; genPlus
                           2208 ; genPlusIncr
   0804 11 56 01           2209 	ld	de,#_map + 0 + 342
                           2210 ; genAssign (pointer)
   0807 3E 00              2211 	ld	a,#0x00
   0809 12                 2212 	ld	(de),a
                           2213 ; genPlus
                           2214 ; genPlusIncr
   080A 11 57 01           2215 	ld	de,#_map + 0 + 343
                           2216 ; genAssign (pointer)
   080D 3E 00              2217 	ld	a,#0x00
   080F 12                 2218 	ld	(de),a
                           2219 ; genPlus
                           2220 ; genPlusIncr
   0810 11 58 01           2221 	ld	de,#_map + 0 + 344
                           2222 ; genAssign (pointer)
   0813 3E 00              2223 	ld	a,#0x00
   0815 12                 2224 	ld	(de),a
                           2225 ; genPlus
                           2226 ; genPlusIncr
   0816 11 59 01           2227 	ld	de,#_map + 0 + 345
                           2228 ; genAssign (pointer)
   0819 3E 00              2229 	ld	a,#0x00
   081B 12                 2230 	ld	(de),a
                           2231 ; genPlus
                           2232 ; genPlusIncr
   081C 11 5A 01           2233 	ld	de,#_map + 0 + 346
                           2234 ; genAssign (pointer)
   081F 3E 00              2235 	ld	a,#0x00
   0821 12                 2236 	ld	(de),a
                           2237 ; genPlus
                           2238 ; genPlusIncr
   0822 11 5B 01           2239 	ld	de,#_map + 0 + 347
                           2240 ; genAssign (pointer)
   0825 3E 00              2241 	ld	a,#0x00
   0827 12                 2242 	ld	(de),a
                           2243 ; genPlus
                           2244 ; genPlusIncr
   0828 11 5C 01           2245 	ld	de,#_map + 0 + 348
                           2246 ; genAssign (pointer)
   082B 3E 00              2247 	ld	a,#0x00
   082D 12                 2248 	ld	(de),a
                           2249 ; genPlus
                           2250 ; genPlusIncr
   082E 11 5D 01           2251 	ld	de,#_map + 0 + 349
                           2252 ; genAssign (pointer)
   0831 3E 00              2253 	ld	a,#0x00
   0833 12                 2254 	ld	(de),a
                           2255 ; genPlus
                           2256 ; genPlusIncr
   0834 11 5E 01           2257 	ld	de,#_map + 0 + 350
                           2258 ; genAssign (pointer)
   0837 3E 00              2259 	ld	a,#0x00
   0839 12                 2260 	ld	(de),a
                           2261 ; genPlus
                           2262 ; genPlusIncr
   083A 11 5F 01           2263 	ld	de,#_map + 0 + 351
                           2264 ; genAssign (pointer)
   083D 3E 00              2265 	ld	a,#0x00
   083F 12                 2266 	ld	(de),a
                           2267 ; genPlus
                           2268 ; genPlusIncr
   0840 11 60 01           2269 	ld	de,#_map + 0 + 352
                           2270 ; genAssign (pointer)
   0843 3E 00              2271 	ld	a,#0x00
   0845 12                 2272 	ld	(de),a
                           2273 ; genPlus
                           2274 ; genPlusIncr
   0846 11 61 01           2275 	ld	de,#_map + 0 + 353
                           2276 ; genAssign (pointer)
   0849 3E 00              2277 	ld	a,#0x00
   084B 12                 2278 	ld	(de),a
                           2279 ; genPlus
                           2280 ; genPlusIncr
   084C 11 62 01           2281 	ld	de,#_map + 0 + 354
                           2282 ; genAssign (pointer)
   084F 3E 00              2283 	ld	a,#0x00
   0851 12                 2284 	ld	(de),a
                           2285 ; genPlus
                           2286 ; genPlusIncr
   0852 11 63 01           2287 	ld	de,#_map + 0 + 355
                           2288 ; genAssign (pointer)
   0855 3E 00              2289 	ld	a,#0x00
   0857 12                 2290 	ld	(de),a
                           2291 ; genPlus
                           2292 ; genPlusIncr
   0858 11 64 01           2293 	ld	de,#_map + 0 + 356
                           2294 ; genAssign (pointer)
   085B 3E 00              2295 	ld	a,#0x00
   085D 12                 2296 	ld	(de),a
                           2297 ; genPlus
                           2298 ; genPlusIncr
   085E 11 65 01           2299 	ld	de,#_map + 0 + 357
                           2300 ; genAssign (pointer)
   0861 3E 00              2301 	ld	a,#0x00
   0863 12                 2302 	ld	(de),a
                           2303 ; genPlus
                           2304 ; genPlusIncr
   0864 11 66 01           2305 	ld	de,#_map + 0 + 358
                           2306 ; genAssign (pointer)
   0867 3E 00              2307 	ld	a,#0x00
   0869 12                 2308 	ld	(de),a
                           2309 ; genPlus
                           2310 ; genPlusIncr
   086A 11 67 01           2311 	ld	de,#_map + 0 + 359
                           2312 ; genAssign (pointer)
   086D 3E 01              2313 	ld	a,#0x01
   086F 12                 2314 	ld	(de),a
                           2315 ; genPlus
                           2316 ; genPlusIncr
   0870 11 68 01           2317 	ld	de,#_map + 0 + 360
                           2318 ; genAssign (pointer)
   0873 3E 03              2319 	ld	a,#0x03
   0875 12                 2320 	ld	(de),a
                           2321 ; genPlus
                           2322 ; genPlusIncr
   0876 11 69 01           2323 	ld	de,#_map + 0 + 361
                           2324 ; genAssign (pointer)
   0879 3E 03              2325 	ld	a,#0x03
   087B 12                 2326 	ld	(de),a
                           2327 ; genPlus
                           2328 ; genPlusIncr
   087C 11 6A 01           2329 	ld	de,#_map + 0 + 362
                           2330 ; genAssign (pointer)
   087F 3E 03              2331 	ld	a,#0x03
   0881 12                 2332 	ld	(de),a
                           2333 ; genPlus
                           2334 ; genPlusIncr
   0882 11 6B 01           2335 	ld	de,#_map + 0 + 363
                           2336 ; genAssign (pointer)
   0885 3E 03              2337 	ld	a,#0x03
   0887 12                 2338 	ld	(de),a
                           2339 ; genPlus
                           2340 ; genPlusIncr
   0888 11 6C 01           2341 	ld	de,#_map + 0 + 364
                           2342 ; genAssign (pointer)
   088B 3E 03              2343 	ld	a,#0x03
   088D 12                 2344 	ld	(de),a
                           2345 ; genPlus
                           2346 ; genPlusIncr
   088E 11 6D 01           2347 	ld	de,#_map + 0 + 365
                           2348 ; genAssign (pointer)
   0891 3E 03              2349 	ld	a,#0x03
   0893 12                 2350 	ld	(de),a
                           2351 ; genPlus
                           2352 ; genPlusIncr
   0894 11 6E 01           2353 	ld	de,#_map + 0 + 366
                           2354 ; genAssign (pointer)
   0897 3E 03              2355 	ld	a,#0x03
   0899 12                 2356 	ld	(de),a
                           2357 ; genPlus
                           2358 ; genPlusIncr
   089A 11 6F 01           2359 	ld	de,#_map + 0 + 367
                           2360 ; genAssign (pointer)
   089D 3E 03              2361 	ld	a,#0x03
   089F 12                 2362 	ld	(de),a
                           2363 ; genPlus
                           2364 ; genPlusIncr
   08A0 11 70 01           2365 	ld	de,#_map + 0 + 368
                           2366 ; genAssign (pointer)
   08A3 3E 03              2367 	ld	a,#0x03
   08A5 12                 2368 	ld	(de),a
                           2369 ; genPlus
                           2370 ; genPlusIncr
   08A6 11 71 01           2371 	ld	de,#_map + 0 + 369
                           2372 ; genAssign (pointer)
   08A9 3E 03              2373 	ld	a,#0x03
   08AB 12                 2374 	ld	(de),a
                           2375 ; genPlus
                           2376 ; genPlusIncr
   08AC 11 72 01           2377 	ld	de,#_map + 0 + 370
                           2378 ; genAssign (pointer)
   08AF 3E 03              2379 	ld	a,#0x03
   08B1 12                 2380 	ld	(de),a
                           2381 ; genPlus
                           2382 ; genPlusIncr
   08B2 11 73 01           2383 	ld	de,#_map + 0 + 371
                           2384 ; genAssign (pointer)
   08B5 3E 03              2385 	ld	a,#0x03
   08B7 12                 2386 	ld	(de),a
                           2387 ; genPlus
                           2388 ; genPlusIncr
   08B8 11 74 01           2389 	ld	de,#_map + 0 + 372
                           2390 ; genAssign (pointer)
   08BB 3E 03              2391 	ld	a,#0x03
   08BD 12                 2392 	ld	(de),a
                           2393 ; genPlus
                           2394 ; genPlusIncr
   08BE 11 75 01           2395 	ld	de,#_map + 0 + 373
                           2396 ; genAssign (pointer)
   08C1 3E 03              2397 	ld	a,#0x03
   08C3 12                 2398 	ld	(de),a
                           2399 ; genPlus
                           2400 ; genPlusIncr
   08C4 11 76 01           2401 	ld	de,#_map + 0 + 374
                           2402 ; genAssign (pointer)
   08C7 3E 03              2403 	ld	a,#0x03
   08C9 12                 2404 	ld	(de),a
                           2405 ; genPlus
                           2406 ; genPlusIncr
   08CA 11 77 01           2407 	ld	de,#_map + 0 + 375
                           2408 ; genAssign (pointer)
   08CD 3E 03              2409 	ld	a,#0x03
   08CF 12                 2410 	ld	(de),a
                           2411 ; genPlus
                           2412 ; genPlusIncr
   08D0 11 78 01           2413 	ld	de,#_map + 0 + 376
                           2414 ; genAssign (pointer)
   08D3 3E 03              2415 	ld	a,#0x03
   08D5 12                 2416 	ld	(de),a
                           2417 ; genPlus
                           2418 ; genPlusIncr
   08D6 11 79 01           2419 	ld	de,#_map + 0 + 377
                           2420 ; genAssign (pointer)
   08D9 3E 03              2421 	ld	a,#0x03
   08DB 12                 2422 	ld	(de),a
                           2423 ; genPlus
                           2424 ; genPlusIncr
   08DC 11 7A 01           2425 	ld	de,#_map + 0 + 378
                           2426 ; genAssign (pointer)
   08DF 3E 03              2427 	ld	a,#0x03
   08E1 12                 2428 	ld	(de),a
                           2429 ; genPlus
                           2430 ; genPlusIncr
   08E2 11 7B 01           2431 	ld	de,#_map + 0 + 379
                           2432 ; genAssign (pointer)
   08E5 3E 00              2433 	ld	a,#0x00
   08E7 12                 2434 	ld	(de),a
                           2435 ;	main.c 251
                           2436 ; genAssign (pointer)
   08E8 11 7C 01           2437 	ld	de,#_maptiles + 0
   08EB 3E 00              2438 	ld	a,#0x00
   08ED 12                 2439 	ld	(de),a
                           2440 ; genPlus
                           2441 ; genPlusIncr
   08EE 11 7D 01           2442 	ld	de,#_maptiles + 0 + 1
                           2443 ; genAssign (pointer)
   08F1 3E 00              2444 	ld	a,#0x00
   08F3 12                 2445 	ld	(de),a
                           2446 ; genPlus
                           2447 ; genPlusIncr
   08F4 11 7E 01           2448 	ld	de,#_maptiles + 0 + 2
                           2449 ; genAssign (pointer)
   08F7 3E 00              2450 	ld	a,#0x00
   08F9 12                 2451 	ld	(de),a
                           2452 ; genPlus
                           2453 ; genPlusIncr
   08FA 11 7F 01           2454 	ld	de,#_maptiles + 0 + 3
                           2455 ; genAssign (pointer)
   08FD 3E 00              2456 	ld	a,#0x00
   08FF 12                 2457 	ld	(de),a
                           2458 ; genPlus
                           2459 ; genPlusIncr
   0900 11 80 01           2460 	ld	de,#_maptiles + 0 + 4
                           2461 ; genAssign (pointer)
   0903 3E 00              2462 	ld	a,#0x00
   0905 12                 2463 	ld	(de),a
                           2464 ; genPlus
                           2465 ; genPlusIncr
   0906 11 81 01           2466 	ld	de,#_maptiles + 0 + 5
                           2467 ; genAssign (pointer)
   0909 3E 00              2468 	ld	a,#0x00
   090B 12                 2469 	ld	(de),a
                           2470 ; genPlus
                           2471 ; genPlusIncr
   090C 11 82 01           2472 	ld	de,#_maptiles + 0 + 6
                           2473 ; genAssign (pointer)
   090F 3E 00              2474 	ld	a,#0x00
   0911 12                 2475 	ld	(de),a
                           2476 ; genPlus
                           2477 ; genPlusIncr
   0912 11 83 01           2478 	ld	de,#_maptiles + 0 + 7
                           2479 ; genAssign (pointer)
   0915 3E 00              2480 	ld	a,#0x00
   0917 12                 2481 	ld	(de),a
                           2482 ; genPlus
                           2483 ; genPlusIncr
   0918 11 84 01           2484 	ld	de,#_maptiles + 0 + 8
                           2485 ; genAssign (pointer)
   091B 3E 00              2486 	ld	a,#0x00
   091D 12                 2487 	ld	(de),a
                           2488 ; genPlus
                           2489 ; genPlusIncr
   091E 11 85 01           2490 	ld	de,#_maptiles + 0 + 9
                           2491 ; genAssign (pointer)
   0921 3E 00              2492 	ld	a,#0x00
   0923 12                 2493 	ld	(de),a
                           2494 ; genPlus
                           2495 ; genPlusIncr
   0924 11 86 01           2496 	ld	de,#_maptiles + 0 + 10
                           2497 ; genAssign (pointer)
   0927 3E 00              2498 	ld	a,#0x00
   0929 12                 2499 	ld	(de),a
                           2500 ; genPlus
                           2501 ; genPlusIncr
   092A 11 87 01           2502 	ld	de,#_maptiles + 0 + 11
                           2503 ; genAssign (pointer)
   092D 3E 00              2504 	ld	a,#0x00
   092F 12                 2505 	ld	(de),a
                           2506 ; genPlus
                           2507 ; genPlusIncr
   0930 11 88 01           2508 	ld	de,#_maptiles + 0 + 12
                           2509 ; genAssign (pointer)
   0933 3E 00              2510 	ld	a,#0x00
   0935 12                 2511 	ld	(de),a
                           2512 ; genPlus
                           2513 ; genPlusIncr
   0936 11 89 01           2514 	ld	de,#_maptiles + 0 + 13
                           2515 ; genAssign (pointer)
   0939 3E 00              2516 	ld	a,#0x00
   093B 12                 2517 	ld	(de),a
                           2518 ; genPlus
                           2519 ; genPlusIncr
   093C 11 8A 01           2520 	ld	de,#_maptiles + 0 + 14
                           2521 ; genAssign (pointer)
   093F 3E 00              2522 	ld	a,#0x00
   0941 12                 2523 	ld	(de),a
                           2524 ; genPlus
                           2525 ; genPlusIncr
   0942 11 8B 01           2526 	ld	de,#_maptiles + 0 + 15
                           2527 ; genAssign (pointer)
   0945 3E 00              2528 	ld	a,#0x00
   0947 12                 2529 	ld	(de),a
                           2530 ; genPlus
                           2531 ; genPlusIncr
   0948 11 8C 01           2532 	ld	de,#_maptiles + 0 + 16
                           2533 ; genAssign (pointer)
   094B 3E 00              2534 	ld	a,#0x00
   094D 12                 2535 	ld	(de),a
                           2536 ; genPlus
                           2537 ; genPlusIncr
   094E 11 8D 01           2538 	ld	de,#_maptiles + 0 + 17
                           2539 ; genAssign (pointer)
   0951 3E FF              2540 	ld	a,#0xFF
   0953 12                 2541 	ld	(de),a
                           2542 ; genPlus
                           2543 ; genPlusIncr
   0954 11 8E 01           2544 	ld	de,#_maptiles + 0 + 18
                           2545 ; genAssign (pointer)
   0957 3E 00              2546 	ld	a,#0x00
   0959 12                 2547 	ld	(de),a
                           2548 ; genPlus
                           2549 ; genPlusIncr
   095A 11 8F 01           2550 	ld	de,#_maptiles + 0 + 19
                           2551 ; genAssign (pointer)
   095D 3E 81              2552 	ld	a,#0x81
   095F 12                 2553 	ld	(de),a
                           2554 ; genPlus
                           2555 ; genPlusIncr
   0960 11 90 01           2556 	ld	de,#_maptiles + 0 + 20
                           2557 ; genAssign (pointer)
   0963 3E 00              2558 	ld	a,#0x00
   0965 12                 2559 	ld	(de),a
                           2560 ; genPlus
                           2561 ; genPlusIncr
   0966 11 91 01           2562 	ld	de,#_maptiles + 0 + 21
                           2563 ; genAssign (pointer)
   0969 3E BD              2564 	ld	a,#0xBD
   096B 12                 2565 	ld	(de),a
                           2566 ; genPlus
                           2567 ; genPlusIncr
   096C 11 92 01           2568 	ld	de,#_maptiles + 0 + 22
                           2569 ; genAssign (pointer)
   096F 3E 00              2570 	ld	a,#0x00
   0971 12                 2571 	ld	(de),a
                           2572 ; genPlus
                           2573 ; genPlusIncr
   0972 11 93 01           2574 	ld	de,#_maptiles + 0 + 23
                           2575 ; genAssign (pointer)
   0975 3E A5              2576 	ld	a,#0xA5
   0977 12                 2577 	ld	(de),a
                           2578 ; genPlus
                           2579 ; genPlusIncr
   0978 11 94 01           2580 	ld	de,#_maptiles + 0 + 24
                           2581 ; genAssign (pointer)
   097B 3E 00              2582 	ld	a,#0x00
   097D 12                 2583 	ld	(de),a
                           2584 ; genPlus
                           2585 ; genPlusIncr
   097E 11 95 01           2586 	ld	de,#_maptiles + 0 + 25
                           2587 ; genAssign (pointer)
   0981 3E A5              2588 	ld	a,#0xA5
   0983 12                 2589 	ld	(de),a
                           2590 ; genPlus
                           2591 ; genPlusIncr
   0984 11 96 01           2592 	ld	de,#_maptiles + 0 + 26
                           2593 ; genAssign (pointer)
   0987 3E 00              2594 	ld	a,#0x00
   0989 12                 2595 	ld	(de),a
                           2596 ; genPlus
                           2597 ; genPlusIncr
   098A 11 97 01           2598 	ld	de,#_maptiles + 0 + 27
                           2599 ; genAssign (pointer)
   098D 3E BD              2600 	ld	a,#0xBD
   098F 12                 2601 	ld	(de),a
                           2602 ; genPlus
                           2603 ; genPlusIncr
   0990 11 98 01           2604 	ld	de,#_maptiles + 0 + 28
                           2605 ; genAssign (pointer)
   0993 3E 00              2606 	ld	a,#0x00
   0995 12                 2607 	ld	(de),a
                           2608 ; genPlus
                           2609 ; genPlusIncr
   0996 11 99 01           2610 	ld	de,#_maptiles + 0 + 29
                           2611 ; genAssign (pointer)
   0999 3E 81              2612 	ld	a,#0x81
   099B 12                 2613 	ld	(de),a
                           2614 ; genPlus
                           2615 ; genPlusIncr
   099C 11 9A 01           2616 	ld	de,#_maptiles + 0 + 30
                           2617 ; genAssign (pointer)
   099F 3E 00              2618 	ld	a,#0x00
   09A1 12                 2619 	ld	(de),a
                           2620 ; genPlus
                           2621 ; genPlusIncr
   09A2 11 9B 01           2622 	ld	de,#_maptiles + 0 + 31
                           2623 ; genAssign (pointer)
   09A5 3E FF              2624 	ld	a,#0xFF
   09A7 12                 2625 	ld	(de),a
                           2626 ; genPlus
                           2627 ; genPlusIncr
   09A8 11 9C 01           2628 	ld	de,#_maptiles + 0 + 32
                           2629 ; genAssign (pointer)
   09AB 3E 00              2630 	ld	a,#0x00
   09AD 12                 2631 	ld	(de),a
                           2632 ; genPlus
                           2633 ; genPlusIncr
   09AE 11 9D 01           2634 	ld	de,#_maptiles + 0 + 33
                           2635 ; genAssign (pointer)
   09B1 3E FF              2636 	ld	a,#0xFF
   09B3 12                 2637 	ld	(de),a
                           2638 ; genPlus
                           2639 ; genPlusIncr
   09B4 11 9E 01           2640 	ld	de,#_maptiles + 0 + 34
                           2641 ; genAssign (pointer)
   09B7 3E 00              2642 	ld	a,#0x00
   09B9 12                 2643 	ld	(de),a
                           2644 ; genPlus
                           2645 ; genPlusIncr
   09BA 11 9F 01           2646 	ld	de,#_maptiles + 0 + 35
                           2647 ; genAssign (pointer)
   09BD 3E E7              2648 	ld	a,#0xE7
   09BF 12                 2649 	ld	(de),a
                           2650 ; genPlus
                           2651 ; genPlusIncr
   09C0 11 A0 01           2652 	ld	de,#_maptiles + 0 + 36
                           2653 ; genAssign (pointer)
   09C3 3E 00              2654 	ld	a,#0x00
   09C5 12                 2655 	ld	(de),a
                           2656 ; genPlus
                           2657 ; genPlusIncr
   09C6 11 A1 01           2658 	ld	de,#_maptiles + 0 + 37
                           2659 ; genAssign (pointer)
   09C9 3E C3              2660 	ld	a,#0xC3
   09CB 12                 2661 	ld	(de),a
                           2662 ; genPlus
                           2663 ; genPlusIncr
   09CC 11 A2 01           2664 	ld	de,#_maptiles + 0 + 38
                           2665 ; genAssign (pointer)
   09CF 3E 00              2666 	ld	a,#0x00
   09D1 12                 2667 	ld	(de),a
                           2668 ; genPlus
                           2669 ; genPlusIncr
   09D2 11 A3 01           2670 	ld	de,#_maptiles + 0 + 39
                           2671 ; genAssign (pointer)
   09D5 3E 81              2672 	ld	a,#0x81
   09D7 12                 2673 	ld	(de),a
                           2674 ; genPlus
                           2675 ; genPlusIncr
   09D8 11 A4 01           2676 	ld	de,#_maptiles + 0 + 40
                           2677 ; genAssign (pointer)
   09DB 3E 00              2678 	ld	a,#0x00
   09DD 12                 2679 	ld	(de),a
                           2680 ; genPlus
                           2681 ; genPlusIncr
   09DE 11 A5 01           2682 	ld	de,#_maptiles + 0 + 41
                           2683 ; genAssign (pointer)
   09E1 3E 81              2684 	ld	a,#0x81
   09E3 12                 2685 	ld	(de),a
                           2686 ; genPlus
                           2687 ; genPlusIncr
   09E4 11 A6 01           2688 	ld	de,#_maptiles + 0 + 42
                           2689 ; genAssign (pointer)
   09E7 3E 00              2690 	ld	a,#0x00
   09E9 12                 2691 	ld	(de),a
                           2692 ; genPlus
                           2693 ; genPlusIncr
   09EA 11 A7 01           2694 	ld	de,#_maptiles + 0 + 43
                           2695 ; genAssign (pointer)
   09ED 3E C3              2696 	ld	a,#0xC3
   09EF 12                 2697 	ld	(de),a
                           2698 ; genPlus
                           2699 ; genPlusIncr
   09F0 11 A8 01           2700 	ld	de,#_maptiles + 0 + 44
                           2701 ; genAssign (pointer)
   09F3 3E 00              2702 	ld	a,#0x00
   09F5 12                 2703 	ld	(de),a
                           2704 ; genPlus
                           2705 ; genPlusIncr
   09F6 11 A9 01           2706 	ld	de,#_maptiles + 0 + 45
                           2707 ; genAssign (pointer)
   09F9 3E E7              2708 	ld	a,#0xE7
   09FB 12                 2709 	ld	(de),a
                           2710 ; genPlus
                           2711 ; genPlusIncr
   09FC 11 AA 01           2712 	ld	de,#_maptiles + 0 + 46
                           2713 ; genAssign (pointer)
   09FF 3E 00              2714 	ld	a,#0x00
   0A01 12                 2715 	ld	(de),a
                           2716 ; genPlus
                           2717 ; genPlusIncr
   0A02 11 AB 01           2718 	ld	de,#_maptiles + 0 + 47
                           2719 ; genAssign (pointer)
   0A05 3E FF              2720 	ld	a,#0xFF
   0A07 12                 2721 	ld	(de),a
                           2722 ; genPlus
                           2723 ; genPlusIncr
   0A08 11 AC 01           2724 	ld	de,#_maptiles + 0 + 48
                           2725 ; genAssign (pointer)
   0A0B 3E FF              2726 	ld	a,#0xFF
   0A0D 12                 2727 	ld	(de),a
                           2728 ; genPlus
                           2729 ; genPlusIncr
   0A0E 11 AD 01           2730 	ld	de,#_maptiles + 0 + 49
                           2731 ; genAssign (pointer)
   0A11 3E 00              2732 	ld	a,#0x00
   0A13 12                 2733 	ld	(de),a
                           2734 ; genPlus
                           2735 ; genPlusIncr
   0A14 11 AE 01           2736 	ld	de,#_maptiles + 0 + 50
                           2737 ; genAssign (pointer)
   0A17 3E FF              2738 	ld	a,#0xFF
   0A19 12                 2739 	ld	(de),a
                           2740 ; genPlus
                           2741 ; genPlusIncr
   0A1A 11 AF 01           2742 	ld	de,#_maptiles + 0 + 51
                           2743 ; genAssign (pointer)
   0A1D 3E 00              2744 	ld	a,#0x00
   0A1F 12                 2745 	ld	(de),a
                           2746 ; genPlus
                           2747 ; genPlusIncr
   0A20 11 B0 01           2748 	ld	de,#_maptiles + 0 + 52
                           2749 ; genAssign (pointer)
   0A23 3E FF              2750 	ld	a,#0xFF
   0A25 12                 2751 	ld	(de),a
                           2752 ; genPlus
                           2753 ; genPlusIncr
   0A26 11 B1 01           2754 	ld	de,#_maptiles + 0 + 53
                           2755 ; genAssign (pointer)
   0A29 3E 00              2756 	ld	a,#0x00
   0A2B 12                 2757 	ld	(de),a
                           2758 ; genPlus
                           2759 ; genPlusIncr
   0A2C 11 B2 01           2760 	ld	de,#_maptiles + 0 + 54
                           2761 ; genAssign (pointer)
   0A2F 3E FF              2762 	ld	a,#0xFF
   0A31 12                 2763 	ld	(de),a
                           2764 ; genPlus
                           2765 ; genPlusIncr
   0A32 11 B3 01           2766 	ld	de,#_maptiles + 0 + 55
                           2767 ; genAssign (pointer)
   0A35 3E 00              2768 	ld	a,#0x00
   0A37 12                 2769 	ld	(de),a
                           2770 ; genPlus
                           2771 ; genPlusIncr
   0A38 11 B4 01           2772 	ld	de,#_maptiles + 0 + 56
                           2773 ; genAssign (pointer)
   0A3B 3E FF              2774 	ld	a,#0xFF
   0A3D 12                 2775 	ld	(de),a
                           2776 ; genPlus
                           2777 ; genPlusIncr
   0A3E 11 B5 01           2778 	ld	de,#_maptiles + 0 + 57
                           2779 ; genAssign (pointer)
   0A41 3E 00              2780 	ld	a,#0x00
   0A43 12                 2781 	ld	(de),a
                           2782 ; genPlus
                           2783 ; genPlusIncr
   0A44 11 B6 01           2784 	ld	de,#_maptiles + 0 + 58
                           2785 ; genAssign (pointer)
   0A47 3E FF              2786 	ld	a,#0xFF
   0A49 12                 2787 	ld	(de),a
                           2788 ; genPlus
                           2789 ; genPlusIncr
   0A4A 11 B7 01           2790 	ld	de,#_maptiles + 0 + 59
                           2791 ; genAssign (pointer)
   0A4D 3E 00              2792 	ld	a,#0x00
   0A4F 12                 2793 	ld	(de),a
                           2794 ; genPlus
                           2795 ; genPlusIncr
   0A50 11 B8 01           2796 	ld	de,#_maptiles + 0 + 60
                           2797 ; genAssign (pointer)
   0A53 3E FF              2798 	ld	a,#0xFF
   0A55 12                 2799 	ld	(de),a
                           2800 ; genPlus
                           2801 ; genPlusIncr
   0A56 11 B9 01           2802 	ld	de,#_maptiles + 0 + 61
                           2803 ; genAssign (pointer)
   0A59 3E 00              2804 	ld	a,#0x00
   0A5B 12                 2805 	ld	(de),a
                           2806 ; genPlus
                           2807 ; genPlusIncr
   0A5C 11 BA 01           2808 	ld	de,#_maptiles + 0 + 62
                           2809 ; genAssign (pointer)
   0A5F 3E FF              2810 	ld	a,#0xFF
   0A61 12                 2811 	ld	(de),a
                           2812 ; genPlus
                           2813 ; genPlusIncr
   0A62 11 BB 01           2814 	ld	de,#_maptiles + 0 + 63
                           2815 ; genAssign (pointer)
   0A65 3E 00              2816 	ld	a,#0x00
   0A67 12                 2817 	ld	(de),a
                           2818 ;	main.c 251
                           2819 ; genAssign
                           2820 ; AOP_HL for _velocityY
   0A68 21 30 03           2821 	ld	hl,#_velocityY + 0
   0A6B 36 00              2822 	ld	(hl),#0x00
                           2823 ;	main.c 251
                           2824 ; genAssign
                           2825 ; AOP_HL for _onGround
   0A6D 21 31 03           2826 	ld	hl,#_onGround + 0
   0A70 36 00              2827 	ld	(hl),#0x00
                           2828 ;	main.c 251
                           2829 ; genAssign
                           2830 ; AOP_HL for _stepCounter
   0A72 21 32 03           2831 	ld	hl,#_stepCounter + 0
   0A75 36 00              2832 	ld	(hl),#0x00
                           2833 ;--------------------------------------------------------
                           2834 ; Home
                           2835 ;--------------------------------------------------------
                           2836 	.area _HOME
                           2837 	.area _CODE
                           2838 ;--------------------------------------------------------
                           2839 ; code
                           2840 ;--------------------------------------------------------
                           2841 	.area _CODE
                           2842 ;	main.c 32
                           2843 ; genLabel
                           2844 ; genFunction
                           2845 ;	---------------------------------
                           2846 ; Function init
                           2847 ; ---------------------------------
   0000                    2848 ___init_start:
   0000                    2849 _init:
                           2850 	
                           2851 ;	main.c 34
                           2852 ; genOr
                           2853 ; AOP_SFR for _LCDC_REG
                           2854 ; Type res[4] = l[4]&r[1]
                           2855 ; Size res[1] = l[1]&r[1]
   0000 F0 00              2856 	ldh	a,(_LCDC_REG+0) ; x
   0002 F6 80              2857 	or	a,#0x80
   0004 E0 00              2858 	ldh	(_LCDC_REG+0),a
                           2859 ;	main.c 35
                           2860 ; genIpush
   0006 21 7C 01           2861 	ld	hl,#_maptiles + 0
   0009 E5                 2862 	push	hl
                           2863 ; genIpush
   000A 3E 04              2864 	ld	a,#0x04
   000C F5                 2865 	push	af
   000D 33                 2866 	inc	sp
                           2867 ; genIpush
   000E 3E 00              2868 	ld	a,#0x00
   0010 F5                 2869 	push	af
   0011 33                 2870 	inc	sp
                           2871 ; genCall
   0012 CD 00 00           2872 	call	_set_bkg_data
   0015 E8 04              2873 	lda	sp,4(sp)
                           2874 ;	main.c 36
                           2875 ; genIpush
   0017 21 00 00           2876 	ld	hl,#_map + 0
   001A E5                 2877 	push	hl
                           2878 ; genIpush
   001B 3E 13              2879 	ld	a,#0x13
   001D F5                 2880 	push	af
   001E 33                 2881 	inc	sp
                           2882 ; genIpush
   001F 3E 14              2883 	ld	a,#0x14
   0021 F5                 2884 	push	af
   0022 33                 2885 	inc	sp
                           2886 ; genIpush
   0023 3E 00              2887 	ld	a,#0x00
   0025 F5                 2888 	push	af
   0026 33                 2889 	inc	sp
                           2890 ; genIpush
   0027 3E 00              2891 	ld	a,#0x00
   0029 F5                 2892 	push	af
   002A 33                 2893 	inc	sp
                           2894 ; genCall
   002B CD 00 00           2895 	call	_set_bkg_tiles
   002E E8 06              2896 	lda	sp,6(sp)
                           2897 ;	main.c 37
                           2898 ; genIpush
   0030 21 9C 00           2899 	ld	hl,#_face + 0
   0033 E5                 2900 	push	hl
                           2901 ; genIpush
   0034 3E 02              2902 	ld	a,#0x02
   0036 F5                 2903 	push	af
   0037 33                 2904 	inc	sp
                           2905 ; genIpush
   0038 3E 00              2906 	ld	a,#0x00
   003A F5                 2907 	push	af
   003B 33                 2908 	inc	sp
                           2909 ; genCall
   003C CD 00 00           2910 	call	_set_sprite_data
   003F E8 04              2911 	lda	sp,4(sp)
                           2912 ;	main.c 38
                           2913 ; genIpush
   0041 3E 00              2914 	ld	a,#0x00
   0043 F5                 2915 	push	af
   0044 33                 2916 	inc	sp
                           2917 ; genIpush
   0045 3E 00              2918 	ld	a,#0x00
   0047 F5                 2919 	push	af
   0048 33                 2920 	inc	sp
                           2921 ; genCall
   0049 CD 00 00           2922 	call	_set_sprite_tile
   004C E8 02              2923 	lda	sp,2(sp)
                           2924 ;	main.c 39
                           2925 ; genIpush
   004E 3E 00              2926 	ld	a,#0x00
   0050 F5                 2927 	push	af
   0051 33                 2928 	inc	sp
                           2929 ; genIpush
   0052 3E 01              2930 	ld	a,#0x01
   0054 F5                 2931 	push	af
   0055 33                 2932 	inc	sp
                           2933 ; genCall
   0056 CD 00 00           2934 	call	_set_sprite_tile
   0059 E8 02              2935 	lda	sp,2(sp)
                           2936 ;	main.c 40
                           2937 ; genIpush
   005B 3E 00              2938 	ld	a,#0x00
   005D F5                 2939 	push	af
   005E 33                 2940 	inc	sp
                           2941 ; genIpush
   005F 3E 02              2942 	ld	a,#0x02
   0061 F5                 2943 	push	af
   0062 33                 2944 	inc	sp
                           2945 ; genCall
   0063 CD 00 00           2946 	call	_set_sprite_tile
   0066 E8 02              2947 	lda	sp,2(sp)
                           2948 ;	main.c 41
                           2949 ; genIpush
   0068 3E 00              2950 	ld	a,#0x00
   006A F5                 2951 	push	af
   006B 33                 2952 	inc	sp
                           2953 ; genIpush
   006C 3E 03              2954 	ld	a,#0x03
   006E F5                 2955 	push	af
   006F 33                 2956 	inc	sp
                           2957 ; genCall
   0070 CD 00 00           2958 	call	_set_sprite_tile
   0073 E8 02              2959 	lda	sp,2(sp)
                           2960 ;	main.c 42
                           2961 ; genAssign (pointer)
   0075 11 BC 01           2962 	ld	de,#_playerxy + 0
   0078 3E 0F              2963 	ld	a,#0x0F
   007A 12                 2964 	ld	(de),a
   007B 13                 2965 	inc	de
   007C 3E 00              2966 	ld	a,#0x00
   007E 12                 2967 	ld	(de),a
                           2968 ;	main.c 43
                           2969 ; genPlus
                           2970 ; genPlusIncr
   007F 11 BE 01           2971 	ld	de,#_playerxy + 0 + 2
                           2972 ; genAssign (pointer)
   0082 3E 00              2973 	ld	a,#0x00
   0084 12                 2974 	ld	(de),a
   0085 13                 2975 	inc	de
   0086 3E 00              2976 	ld	a,#0x00
   0088 12                 2977 	ld	(de),a
                           2978 ;	main.c 46
                           2979 ; genAnd
                           2980 ; AOP_SFR for _LCDC_REG
   0089 F0 00              2981 	ldh	a,(_LCDC_REG+0) ; x
   008B E6 DF              2982 	and	a,#0xDF
   008D E0 00              2983 	ldh	(_LCDC_REG+0),a
                           2984 ;	main.c 47
                           2985 ; genOr
                           2986 ; AOP_SFR for _LCDC_REG
                           2987 ; Type res[4] = l[4]&r[1]
                           2988 ; Size res[1] = l[1]&r[1]
   008F F0 00              2989 	ldh	a,(_LCDC_REG+0) ; x
   0091 F6 01              2990 	or	a,#0x01
   0093 E0 00              2991 	ldh	(_LCDC_REG+0),a
                           2992 ;	main.c 48
                           2993 ; genOr
                           2994 ; AOP_SFR for _LCDC_REG
                           2995 ; Type res[4] = l[4]&r[1]
                           2996 ; Size res[1] = l[1]&r[1]
   0095 F0 00              2997 	ldh	a,(_LCDC_REG+0) ; x
   0097 F6 02              2998 	or	a,#0x02
   0099 E0 00              2999 	ldh	(_LCDC_REG+0),a
                           3000 ; genLabel
   009B                    3001 00101$:
                           3002 ; genEndFunction
                           3003 	
   009B C9                 3004 	ret
   009C                    3005 ___init_end:
   009C                    3006 _face:
   009C FF                 3007 	.db #0xFF
   009D FF                 3008 	.db #0xFF
   009E 81                 3009 	.db #0x81
   009F 81                 3010 	.db #0x81
   00A0 A5                 3011 	.db #0xA5
   00A1 A5                 3012 	.db #0xA5
   00A2 A5                 3013 	.db #0xA5
   00A3 A5                 3014 	.db #0xA5
   00A4 81                 3015 	.db #0x81
   00A5 81                 3016 	.db #0x81
   00A6 99                 3017 	.db #0x99
   00A7 99                 3018 	.db #0x99
   00A8 81                 3019 	.db #0x81
   00A9 81                 3020 	.db #0x81
   00AA FF                 3021 	.db #0xFF
   00AB FF                 3022 	.db #0xFF
   00AC FF                 3023 	.db #0xFF
   00AD FF                 3024 	.db #0xFF
   00AE 81                 3025 	.db #0x81
   00AF 81                 3026 	.db #0x81
   00B0 E7                 3027 	.db #0xE7
   00B1 E7                 3028 	.db #0xE7
   00B2 81                 3029 	.db #0x81
   00B3 81                 3030 	.db #0x81
   00B4 99                 3031 	.db #0x99
   00B5 99                 3032 	.db #0x99
   00B6 A5                 3033 	.db #0xA5
   00B7 A5                 3034 	.db #0xA5
   00B8 81                 3035 	.db #0x81
   00B9 81                 3036 	.db #0x81
   00BA FF                 3037 	.db #0xFF
   00BB FF                 3038 	.db #0xFF
                           3039 ;	main.c 55
                           3040 ; genLabel
                           3041 ; genFunction
                           3042 ;	---------------------------------
                           3043 ; Function map_collision
                           3044 ; ---------------------------------
   00BC                    3045 ___map_collision_start:
   00BC                    3046 _map_collision:
   00BC C5                 3047 	push	bc
   00BD E8 F9              3048 	lda	sp,-7(sp)
                           3049 ;	main.c 60
                           3050 ; genPlus
                           3051 ; AOP_STK for 
                           3052 ; AOP_STK for 
                           3053 ;	genPlusIncr failed
   00BF F8 11              3054 	lda	hl,17(sp)
   00C1 5E                 3055 	ld	e,(hl)
   00C2 23                 3056 	inc	hl
   00C3 56                 3057 	ld	d,(hl)
   00C4 F8 0D              3058 	lda	hl,13(sp)
   00C6 2A                 3059 	ld	a,(hl+)
   00C7 66                 3060 	ld	h,(hl)
   00C8 6F                 3061 	ld	l,a
   00C9 19                 3062 	add	hl,de
   00CA 7D                 3063 	ld	a,l
   00CB 54                 3064 	ld	d,h
   00CC F8 11              3065 	lda	hl,17(sp)
   00CE 22                 3066 	ld	(hl+),a
   00CF 72                 3067 	ld	(hl),d
                           3068 ;	main.c 61
                           3069 ; genPlus
                           3070 ; AOP_STK for 
                           3071 ; AOP_STK for 
                           3072 ;	genPlusIncr failed
   00D0 F8 0F              3073 	lda	hl,15(sp)
   00D2 5E                 3074 	ld	e,(hl)
   00D3 23                 3075 	inc	hl
   00D4 56                 3076 	ld	d,(hl)
   00D5 F8 0B              3077 	lda	hl,11(sp)
   00D7 2A                 3078 	ld	a,(hl+)
   00D8 66                 3079 	ld	h,(hl)
   00D9 6F                 3080 	ld	l,a
   00DA 19                 3081 	add	hl,de
   00DB 7D                 3082 	ld	a,l
   00DC 54                 3083 	ld	d,h
   00DD F8 0F              3084 	lda	hl,15(sp)
   00DF 22                 3085 	ld	(hl+),a
   00E0 72                 3086 	ld	(hl),d
                           3087 ;	main.c 63
                           3088 ; genRightShift
                           3089 ; AOP_STK for 
                           3090 ; shift right 	result 2, left 2
   00E1 3E 04              3091 	ld	a,#0x03+1
   00E3 18 08              3092 	jr	00122$
   00E5                    3093 00121$:
   00E5 B7                 3094 	or	a,a
   00E6 F8 0C              3095 	lda	hl,12(sp)
   00E8 CB 1E              3096 	rr	(hl)
   00EA 2B                 3097 	dec	hl
   00EB CB 1E              3098 	rr	(hl)
   00ED                    3099 00122$:
   00ED 3D                 3100 	dec	a
   00EE 20 F5              3101 	jr	nz,00121$
                           3102 ;	main.c 64
                           3103 ; genRightShift
                           3104 ; AOP_STK for 
                           3105 ; shift right 	result 2, left 2
   00F0 3E 04              3106 	ld	a,#0x03+1
   00F2 18 08              3107 	jr	00124$
   00F4                    3108 00123$:
   00F4 B7                 3109 	or	a,a
   00F5 F8 0E              3110 	lda	hl,14(sp)
   00F7 CB 1E              3111 	rr	(hl)
   00F9 2B                 3112 	dec	hl
   00FA CB 1E              3113 	rr	(hl)
   00FC                    3114 00124$:
   00FC 3D                 3115 	dec	a
   00FD 20 F5              3116 	jr	nz,00123$
                           3117 ;	main.c 66
                           3118 ; genRightShift
                           3119 ; AOP_STK for 
                           3120 ; shift right 	result 2, left 2
   00FF 3E 04              3121 	ld	a,#0x03+1
   0101 18 08              3122 	jr	00126$
   0103                    3123 00125$:
   0103 B7                 3124 	or	a,a
   0104 F8 10              3125 	lda	hl,16(sp)
   0106 CB 1E              3126 	rr	(hl)
   0108 2B                 3127 	dec	hl
   0109 CB 1E              3128 	rr	(hl)
   010B                    3129 00126$:
   010B 3D                 3130 	dec	a
   010C 20 F5              3131 	jr	nz,00125$
                           3132 ;	main.c 67
                           3133 ; genRightShift
                           3134 ; AOP_STK for 
                           3135 ; shift right 	result 2, left 2
   010E 3E 04              3136 	ld	a,#0x03+1
   0110 18 08              3137 	jr	00128$
   0112                    3138 00127$:
   0112 B7                 3139 	or	a,a
   0113 F8 12              3140 	lda	hl,18(sp)
   0115 CB 1E              3141 	rr	(hl)
   0117 2B                 3142 	dec	hl
   0118 CB 1E              3143 	rr	(hl)
   011A                    3144 00128$:
   011A 3D                 3145 	dec	a
   011B 20 F5              3146 	jr	nz,00127$
                           3147 ;	main.c 69
                           3148 ; genMinus
                           3149 ; AOP_STK for 
                           3150 ; AOP_STK for 
   011D F8 11              3151 	lda	hl,17(sp)
   011F 5E                 3152 	ld	e,(hl)
   0120 23                 3153 	inc	hl
   0121 56                 3154 	ld	d,(hl)
   0122 F8 0D              3155 	lda	hl,13(sp)
   0124 2A                 3156 	ld	a,(hl+)
   0125 66                 3157 	ld	h,(hl)
   0126 6F                 3158 	ld	l,a
   0127 7B                 3159 	ld	a,e
   0128 95                 3160 	sub	a,l
   0129 5F                 3161 	ld	e,a
   012A 7A                 3162 	ld	a,d
   012B 9C                 3163 	sbc	a,h
   012C F8 12              3164 	lda	hl,18(sp)
   012E 77                 3165 	ld	(hl),a
   012F 2B                 3166 	dec	hl
   0130 73                 3167 	ld	(hl),e
                           3168 ;	main.c 70
                           3169 ; genMinus
                           3170 ; AOP_STK for 
                           3171 ; AOP_STK for 
   0131 2B                 3172 	dec	hl
   0132 2B                 3173 	dec	hl
   0133 5E                 3174 	ld	e,(hl)
   0134 23                 3175 	inc	hl
   0135 56                 3176 	ld	d,(hl)
   0136 F8 0B              3177 	lda	hl,11(sp)
   0138 2A                 3178 	ld	a,(hl+)
   0139 66                 3179 	ld	h,(hl)
   013A 6F                 3180 	ld	l,a
   013B 7B                 3181 	ld	a,e
   013C 95                 3182 	sub	a,l
   013D 5F                 3183 	ld	e,a
   013E 7A                 3184 	ld	a,d
   013F 9C                 3185 	sbc	a,h
   0140 F8 10              3186 	lda	hl,16(sp)
   0142 77                 3187 	ld	(hl),a
   0143 2B                 3188 	dec	hl
   0144 73                 3189 	ld	(hl),e
                           3190 ;	main.c 72
                           3191 ; genIpush
   0145 21 14 00           3192 	ld	hl,#0x0014
   0148 E5                 3193 	push	hl
                           3194 ; genIpush
                           3195 ; AOP_STK for 
   0149 F8 0F              3196 	lda	hl,15(sp)
   014B 2A                 3197 	ld	a,(hl+)
   014C 66                 3198 	ld	h,(hl)
   014D 6F                 3199 	ld	l,a
   014E E5                 3200 	push	hl
                           3201 ; genCall
   014F CD 00 00           3202 	call	__muluint
   0152 42                 3203 	ld	b,d
   0153 4B                 3204 	ld	c,e
   0154 E8 04              3205 	lda	sp,4(sp)
                           3206 ; genPlus
                           3207 ; AOP_STK for 
                           3208 ; AOP_STK for _map_collision_index_1_1
                           3209 ;	genPlusIncr failed
   0156 F8 0B              3210 	lda	hl,11(sp)
   0158 2A                 3211 	ld	a,(hl+)
   0159 66                 3212 	ld	h,(hl)
   015A 6F                 3213 	ld	l,a
   015B 09                 3214 	add	hl,bc
   015C 7D                 3215 	ld	a,l
   015D 54                 3216 	ld	d,h
   015E F8 02              3217 	lda	hl,2(sp)
   0160 22                 3218 	ld	(hl+),a
   0161 72                 3219 	ld	(hl),d
                           3220 ;	main.c 74
                           3221 ; genPlus
                           3222 ; AOP_STK for _map_collision_index_1_1
                           3223 ;	genPlusIncr failed
   0162 11 00 00           3224 	ld	de,#_map + 0
   0165 2B                 3225 	dec	hl
   0166 2A                 3226 	ld	a,(hl+)
   0167 66                 3227 	ld	h,(hl)
   0168 6F                 3228 	ld	l,a
   0169 19                 3229 	add	hl,de
   016A 5D                 3230 	ld	e,l
   016B 54                 3231 	ld	d,h
                           3232 ; genPointerGet
                           3233 ; AOP_STK for _map_collision_tile_0_1_1
   016C 1A                 3234 	ld	a,(de)
   016D F8 06              3235 	lda	hl,6(sp)
   016F 77                 3236 	ld	(hl),a
                           3237 ;	main.c 75
                           3238 ; genPlus
                           3239 ; AOP_STK for _map_collision_index_1_1
                           3240 ; AOP_STK for 
                           3241 ; AOP_STK for _map_collision_sloc0_1_0
                           3242 ;	genPlusIncr failed
   0170 F8 02              3243 	lda	hl,2(sp)
   0172 5E                 3244 	ld	e,(hl)
   0173 23                 3245 	inc	hl
   0174 56                 3246 	ld	d,(hl)
   0175 F8 0F              3247 	lda	hl,15(sp)
   0177 2A                 3248 	ld	a,(hl+)
   0178 66                 3249 	ld	h,(hl)
   0179 6F                 3250 	ld	l,a
   017A 19                 3251 	add	hl,de
   017B 7D                 3252 	ld	a,l
   017C 54                 3253 	ld	d,h
   017D F8 00              3254 	lda	hl,0(sp)
   017F 22                 3255 	ld	(hl+),a
   0180 72                 3256 	ld	(hl),d
                           3257 ; genPlus
                           3258 ; AOP_STK for _map_collision_sloc0_1_0
                           3259 ;	genPlusIncr failed
   0181 11 00 00           3260 	ld	de,#_map + 0
   0184 2B                 3261 	dec	hl
   0185 2A                 3262 	ld	a,(hl+)
   0186 66                 3263 	ld	h,(hl)
   0187 6F                 3264 	ld	l,a
   0188 19                 3265 	add	hl,de
   0189 5D                 3266 	ld	e,l
   018A 54                 3267 	ld	d,h
                           3268 ; genPointerGet
                           3269 ; AOP_STK for _map_collision_tile_1_1_1
   018B 1A                 3270 	ld	a,(de)
   018C F8 05              3271 	lda	hl,5(sp)
   018E 77                 3272 	ld	(hl),a
                           3273 ;	main.c 77
                           3274 ; genPlus
                           3275 ; AOP_STK for 
                           3276 ; AOP_STK for 
                           3277 ;	genPlusIncr failed
   018F F8 0D              3278 	lda	hl,13(sp)
   0191 5E                 3279 	ld	e,(hl)
   0192 23                 3280 	inc	hl
   0193 56                 3281 	ld	d,(hl)
   0194 F8 11              3282 	lda	hl,17(sp)
   0196 2A                 3283 	ld	a,(hl+)
   0197 66                 3284 	ld	h,(hl)
   0198 6F                 3285 	ld	l,a
   0199 19                 3286 	add	hl,de
   019A 4D                 3287 	ld	c,l
   019B 44                 3288 	ld	b,h
                           3289 ; genIpush
   019C 21 14 00           3290 	ld	hl,#0x0014
   019F E5                 3291 	push	hl
                           3292 ; genIpush
   01A0 C5                 3293 	push	bc
                           3294 ; genCall
   01A1 CD 00 00           3295 	call	__muluint
   01A4 42                 3296 	ld	b,d
   01A5 4B                 3297 	ld	c,e
   01A6 E8 04              3298 	lda	sp,4(sp)
                           3299 ; genPlus
                           3300 ; AOP_STK for 
                           3301 ; AOP_STK for _map_collision_index_1_1
                           3302 ;	genPlusIncr failed
   01A8 F8 0B              3303 	lda	hl,11(sp)
   01AA 2A                 3304 	ld	a,(hl+)
   01AB 66                 3305 	ld	h,(hl)
   01AC 6F                 3306 	ld	l,a
   01AD 09                 3307 	add	hl,bc
   01AE 7D                 3308 	ld	a,l
   01AF 54                 3309 	ld	d,h
   01B0 F8 02              3310 	lda	hl,2(sp)
   01B2 22                 3311 	ld	(hl+),a
   01B3 72                 3312 	ld	(hl),d
                           3313 ;	main.c 79
                           3314 ; genPlus
                           3315 ; AOP_STK for _map_collision_index_1_1
                           3316 ;	genPlusIncr failed
   01B4 11 00 00           3317 	ld	de,#_map + 0
   01B7 2B                 3318 	dec	hl
   01B8 2A                 3319 	ld	a,(hl+)
   01B9 66                 3320 	ld	h,(hl)
   01BA 6F                 3321 	ld	l,a
   01BB 19                 3322 	add	hl,de
   01BC 5D                 3323 	ld	e,l
   01BD 54                 3324 	ld	d,h
                           3325 ; genPointerGet
                           3326 ; AOP_STK for _map_collision_tile_2_1_1
   01BE 1A                 3327 	ld	a,(de)
   01BF F8 04              3328 	lda	hl,4(sp)
   01C1 77                 3329 	ld	(hl),a
                           3330 ;	main.c 80
                           3331 ; genPlus
                           3332 ; AOP_STK for _map_collision_index_1_1
                           3333 ; AOP_STK for 
                           3334 ;	genPlusIncr failed
   01C2 2B                 3335 	dec	hl
   01C3 2B                 3336 	dec	hl
   01C4 5E                 3337 	ld	e,(hl)
   01C5 23                 3338 	inc	hl
   01C6 56                 3339 	ld	d,(hl)
   01C7 F8 0F              3340 	lda	hl,15(sp)
   01C9 2A                 3341 	ld	a,(hl+)
   01CA 66                 3342 	ld	h,(hl)
   01CB 6F                 3343 	ld	l,a
   01CC 19                 3344 	add	hl,de
   01CD 45                 3345 	ld	b,l
   01CE 4C                 3346 	ld	c,h
                           3347 ; genPlus
                           3348 ;	genPlusIncr failed
   01CF 3E 00              3349 	ld	a,#<_map
   01D1 80                 3350 	add	a,b
   01D2 5F                 3351 	ld	e,a
   01D3 3E 00              3352 	ld	a,#>_map
   01D5 89                 3353 	adc	a,c
   01D6 57                 3354 	ld	d,a
                           3355 ; genPointerGet
   01D7 1A                 3356 	ld	a,(de)
   01D8 4F                 3357 	ld	c,a
                           3358 ;	main.c 84
                           3359 ; genCmpEq
                           3360 ; AOP_STK for _map_collision_tile_0_1_1
   01D9 F8 06              3361 	lda	hl,6(sp)
   01DB 7E                 3362 	ld	a,(hl) ; 2
   01DC FE 01              3363 	cp	a,#0x01
   01DE C2 E5 01           3364 	jp	nz,00129$
   01E1 3E 01              3365 	ld	a,#0x01
   01E3 18 01              3366 	jr	00130$
   01E5                    3367 00129$:
   01E5 AF                 3368 	xor	a,a
   01E6                    3369 00130$:
   01E6 47                 3370 	ld	b,a
                           3371 ; genIfx
                           3372 ; Removed redundent or a,a
   01E7 AF                 3373 	xor	a,a
   01E8 B0                 3374 	or	a,b
   01E9 C2 F9 01           3375 	jp	nz,00101$
                           3376 ; genCmpEq
                           3377 ; AOP_STK for _map_collision_tile_1_1_1
   01EC F8 05              3378 	lda	hl,5(sp)
   01EE 7E                 3379 	ld	a,(hl) ; 2
   01EF FE 01              3380 	cp	a,#0x01
   01F1 C2 F6 01           3381 	jp	nz,00131$
   01F4 18 03              3382 	jr	00132$
   01F6                    3383 00131$:
   01F6 C3 01 02           3384 	jp	00102$
   01F9                    3385 00132$:
                           3386 ; genLabel
   01F9                    3387 00101$:
                           3388 ;	main.c 85
                           3389 ; genAssign
                           3390 ; AOP_HL for _c0
   01F9 21 2C 03           3391 	ld	hl,#_c0 + 0
   01FC 36 01              3392 	ld	(hl),#0x01
                           3393 ; genGoto
   01FE C3 06 02           3394 	jp	00103$
                           3395 ; genLabel
   0201                    3396 00102$:
                           3397 ;	main.c 87
                           3398 ; genAssign
                           3399 ; AOP_HL for _c0
   0201 21 2C 03           3400 	ld	hl,#_c0 + 0
   0204 36 00              3401 	ld	(hl),#0x00
                           3402 ; genLabel
   0206                    3403 00103$:
                           3404 ;	main.c 111
                           3405 ; genCmpEq
   0206 79                 3406 	ld	a,c ; 2
   0207 FE 01              3407 	cp	a,#0x01
                           3408 ; Rule 5
   0209 CA 19 02           3409 	jp	z,00111$
   020C                    3410 00133$:
                           3411 ; genCmpEq
                           3412 ; AOP_STK for _map_collision_tile_2_1_1
   020C F8 04              3413 	lda	hl,4(sp)
   020E 7E                 3414 	ld	a,(hl) ; 2
   020F FE 01              3415 	cp	a,#0x01
   0211 C2 16 02           3416 	jp	nz,00134$
   0214 18 03              3417 	jr	00135$
   0216                    3418 00134$:
   0216 C3 4D 02           3419 	jp	00112$
   0219                    3420 00135$:
                           3421 ; genLabel
   0219                    3422 00111$:
                           3423 ;	main.c 112
                           3424 ; genAssign
                           3425 ; AOP_HL for _c2
   0219 21 2E 03           3426 	ld	hl,#_c2 + 0
   021C 36 01              3427 	ld	(hl),#0x01
                           3428 ;	main.c 114
                           3429 ; genIfx
                           3430 ; Removed redundent or a,a
   021E AF                 3431 	xor	a,a
   021F B0                 3432 	or	a,b
   0220 CA 2B 02           3433 	jp	z,00106$
                           3434 ;	main.c 115
                           3435 ; genAssign
                           3436 ; AOP_HL for _c3
   0223 21 2F 03           3437 	ld	hl,#_c3 + 0
   0226 36 01              3438 	ld	(hl),#0x01
                           3439 ; genGoto
   0228 C3 30 02           3440 	jp	00107$
                           3441 ; genLabel
   022B                    3442 00106$:
                           3443 ;	main.c 117
                           3444 ; genAssign
                           3445 ; AOP_HL for _c3
   022B 21 2F 03           3446 	ld	hl,#_c3 + 0
   022E 36 00              3447 	ld	(hl),#0x00
                           3448 ; genLabel
   0230                    3449 00107$:
                           3450 ;	main.c 123
                           3451 ; genCmpEq
                           3452 ; AOP_STK for _map_collision_tile_1_1_1
   0230 F8 05              3453 	lda	hl,5(sp)
   0232 7E                 3454 	ld	a,(hl) ; 2
   0233 FE 01              3455 	cp	a,#0x01
   0235 C2 3A 02           3456 	jp	nz,00136$
   0238 18 03              3457 	jr	00137$
   023A                    3458 00136$:
   023A C3 45 02           3459 	jp	00109$
   023D                    3460 00137$:
                           3461 ;	main.c 124
                           3462 ; genAssign
                           3463 ; AOP_HL for _c1
   023D 21 2D 03           3464 	ld	hl,#_c1 + 0
   0240 36 01              3465 	ld	(hl),#0x01
                           3466 ; genGoto
   0242 C3 52 02           3467 	jp	00115$
                           3468 ; genLabel
   0245                    3469 00109$:
                           3470 ;	main.c 126
                           3471 ; genAssign
                           3472 ; AOP_HL for _c1
   0245 21 2D 03           3473 	ld	hl,#_c1 + 0
   0248 36 00              3474 	ld	(hl),#0x00
                           3475 ; genGoto
   024A C3 52 02           3476 	jp	00115$
                           3477 ; genLabel
   024D                    3478 00112$:
                           3479 ;	main.c 130
                           3480 ; genAssign
                           3481 ; AOP_HL for _c2
   024D 21 2E 03           3482 	ld	hl,#_c2 + 0
   0250 36 00              3483 	ld	(hl),#0x00
                           3484 ; genLabel
   0252                    3485 00115$:
                           3486 ; genEndFunction
   0252 E8 07              3487 	lda	sp,7(sp)
   0254 C1                 3488 	pop	bc
   0255 C9                 3489 	ret
   0256                    3490 ___map_collision_end:
                           3491 ;	main.c 149
                           3492 ; genLabel
                           3493 ; genFunction
                           3494 ;	---------------------------------
                           3495 ; Function checkInput
                           3496 ; ---------------------------------
   0256                    3497 ___checkInput_start:
   0256                    3498 _checkInput:
   0256 C5                 3499 	push	bc
   0257 E8 FA              3500 	lda	sp,-6(sp)
                           3501 ;	main.c 151
                           3502 ; genCall
   0259 CD 00 00           3503 	call	_joypad
                           3504 ;	main.c 156
                           3505 ; genCall
   025C CD 00 00           3506 	call	_joypad
                           3507 ;	main.c 159
                           3508 ; genCall
   025F CD 00 00           3509 	call	_joypad
   0262 4B                 3510 	ld	c,e
                           3511 ; genAnd
   0263 79                 3512 	ld	a,c
   0264 CB 4F              3513 	bit	1,a
   0266 CA B7 02           3514 	jp	z,00106$
                           3515 ;	main.c 161
                           3516 ; genPointerGet
                           3517 ; AOP_STK for _checkInput_sloc0_1_0
   0269 11 BC 01           3518 	ld	de,#_playerxy + 0
   026C 1A                 3519 	ld	a,(de)
   026D F8 04              3520 	lda	hl,4(sp)
   026F 77                 3521 	ld	(hl),a
   0270 13                 3522 	inc	de
   0271 1A                 3523 	ld	a,(de)
   0272 23                 3524 	inc	hl
   0273 77                 3525 	ld	(hl),a
                           3526 ; genCmpGt
                           3527 ; AOP_STK for _checkInput_sloc0_1_0
   0274 2B                 3528 	dec	hl
   0275 5E                 3529 	ld	e,(hl)
   0276 23                 3530 	inc	hl
   0277 56                 3531 	ld	d,(hl)
   0278 21 FF FF           3532 	ld	hl,#0xFFFF
   027B 19                 3533 	add	hl,de
   027C D2 B7 02           3534 	jp	nc,00106$
                           3535 ;	main.c 162
                           3536 ; genPlus
                           3537 ; genPlusIncr
   027F 11 BE 01           3538 	ld	de,#_playerxy + 0 + 2
                           3539 ; genPointerGet
                           3540 ; AOP_STK for _checkInput_sloc1_1_0
                           3541 ; Removed redundent load
                           3542 ; Removed redundent load
   0282 1A                 3543 	ld	a,(de)
   0283 F8 02              3544 	lda	hl,2(sp)
   0285 77                 3545 	ld	(hl),a
   0286 13                 3546 	inc	de
   0287 1A                 3547 	ld	a,(de)
   0288 23                 3548 	inc	hl
                           3549 ; genMinus
                           3550 ; AOP_STK for _checkInput_sloc0_1_0
   0289 22                 3551 	ld	(hl+),a
   028A 4E                 3552 	ld	c,(hl)
   028B 23                 3553 	inc	hl
   028C 46                 3554 	ld	b,(hl)
   028D 0B                 3555 	dec	bc
                           3556 ; genIpush
   028E 21 08 00           3557 	ld	hl,#0x0008
   0291 E5                 3558 	push	hl
                           3559 ; genIpush
   0292 21 07 00           3560 	ld	hl,#0x0007
   0295 E5                 3561 	push	hl
                           3562 ; genIpush
                           3563 ; AOP_STK for _checkInput_sloc1_1_0
   0296 F8 06              3564 	lda	hl,6(sp)
   0298 2A                 3565 	ld	a,(hl+)
   0299 66                 3566 	ld	h,(hl)
   029A 6F                 3567 	ld	l,a
   029B E5                 3568 	push	hl
                           3569 ; genIpush
   029C C5                 3570 	push	bc
                           3571 ; genCall
   029D CD BC 00           3572 	call	_map_collision
   02A0 E8 08              3573 	lda	sp,8(sp)
                           3574 ;	main.c 163
                           3575 ; genCmpEq
                           3576 ; AOP_HL for _c3
   02A2 21 2F 03           3577 	ld	hl,#_c3 + 0
   02A5 7E                 3578 	ld	a,(hl)
   02A6 B7                 3579 	or	a,a
   02A7 C2 AC 02           3580 	jp	nz,00133$
   02AA 18 03              3581 	jr	00134$
   02AC                    3582 00133$:
   02AC C3 B7 02           3583 	jp	00106$
   02AF                    3584 00134$:
                           3585 ;	main.c 164
                           3586 ; genAssign (pointer)
   02AF 11 BC 01           3587 	ld	de,#_playerxy + 0
   02B2 79                 3588 	ld	a,c
   02B3 12                 3589 	ld	(de),a
   02B4 13                 3590 	inc	de
   02B5 78                 3591 	ld	a,b
   02B6 12                 3592 	ld	(de),a
                           3593 ; genLabel
   02B7                    3594 00106$:
                           3595 ;	main.c 171
                           3596 ; genCall
   02B7 CD 00 00           3597 	call	_joypad
   02BA 4B                 3598 	ld	c,e
                           3599 ; genAnd
   02BB 79                 3600 	ld	a,c
   02BC CB 47              3601 	bit	0,a
   02BE CA 0E 03           3602 	jp	z,00112$
                           3603 ;	main.c 173
                           3604 ; genPointerGet
                           3605 ; AOP_STK for _checkInput_sloc1_1_0
   02C1 11 BC 01           3606 	ld	de,#_playerxy + 0
   02C4 1A                 3607 	ld	a,(de)
   02C5 F8 02              3608 	lda	hl,2(sp)
   02C7 77                 3609 	ld	(hl),a
   02C8 13                 3610 	inc	de
   02C9 1A                 3611 	ld	a,(de)
   02CA 23                 3612 	inc	hl
   02CB 77                 3613 	ld	(hl),a
                           3614 ; genCmpLt
                           3615 ; AOP_STK for _checkInput_sloc1_1_0
   02CC 2B                 3616 	dec	hl
   02CD 5E                 3617 	ld	e,(hl)
   02CE 23                 3618 	inc	hl
   02CF 56                 3619 	ld	d,(hl)
   02D0 21 68 FF           3620 	ld	hl,#0xFF68
   02D3 19                 3621 	add	hl,de
   02D4 DA 0E 03           3622 	jp	c,00112$
                           3623 ;	main.c 174
                           3624 ; genPlus
                           3625 ; genPlusIncr
   02D7 11 BE 01           3626 	ld	de,#_playerxy + 0 + 2
                           3627 ; genPointerGet
                           3628 ; Removed redundent load
                           3629 ; Removed redundent load
   02DA 1A                 3630 	ld	a,(de)
   02DB 4F                 3631 	ld	c,a
   02DC 13                 3632 	inc	de
   02DD 1A                 3633 	ld	a,(de)
   02DE 47                 3634 	ld	b,a
                           3635 ; genIpush
   02DF 21 08 00           3636 	ld	hl,#0x0008
   02E2 E5                 3637 	push	hl
                           3638 ; genIpush
   02E3 21 08 00           3639 	ld	hl,#0x0008
   02E6 E5                 3640 	push	hl
                           3641 ; genIpush
   02E7 C5                 3642 	push	bc
                           3643 ; genIpush
                           3644 ; AOP_STK for _checkInput_sloc1_1_0
   02E8 F8 08              3645 	lda	hl,8(sp)
   02EA 2A                 3646 	ld	a,(hl+)
   02EB 66                 3647 	ld	h,(hl)
   02EC 6F                 3648 	ld	l,a
   02ED E5                 3649 	push	hl
                           3650 ; genCall
   02EE CD BC 00           3651 	call	_map_collision
   02F1 E8 08              3652 	lda	sp,8(sp)
                           3653 ;	main.c 175
                           3654 ; genCmpEq
                           3655 ; AOP_HL for _c1
   02F3 21 2D 03           3656 	ld	hl,#_c1 + 0
   02F6 7E                 3657 	ld	a,(hl)
   02F7 B7                 3658 	or	a,a
   02F8 C2 FD 02           3659 	jp	nz,00135$
   02FB 18 03              3660 	jr	00136$
   02FD                    3661 00135$:
   02FD C3 0E 03           3662 	jp	00112$
   0300                    3663 00136$:
                           3664 ;	main.c 176
                           3665 ; genPlus
                           3666 ; AOP_STK for _checkInput_sloc1_1_0
                           3667 ; genPlusIncr
   0300 F8 02              3668 	lda	hl,2(sp)
   0302 4E                 3669 	ld	c,(hl)
   0303 23                 3670 	inc	hl
   0304 46                 3671 	ld	b,(hl)
   0305 03                 3672 	inc	bc
                           3673 ; genAssign (pointer)
   0306 11 BC 01           3674 	ld	de,#_playerxy + 0
   0309 79                 3675 	ld	a,c
   030A 12                 3676 	ld	(de),a
   030B 13                 3677 	inc	de
   030C 78                 3678 	ld	a,b
   030D 12                 3679 	ld	(de),a
                           3680 ; genLabel
   030E                    3681 00112$:
                           3682 ;	main.c 182
                           3683 ; genCall
   030E CD 00 00           3684 	call	_joypad
   0311 4B                 3685 	ld	c,e
                           3686 ; genAnd
   0312 79                 3687 	ld	a,c
   0313 CB 7F              3688 	bit	7,a
   0315 CA 77 03           3689 	jp	z,00114$
                           3690 ;	main.c 183
                           3691 ; genPlus
                           3692 ; genPlusIncr
   0318 11 BE 01           3693 	ld	de,#_playerxy + 0 + 2
                           3694 ; genPointerGet
                           3695 ; AOP_STK for _checkInput_sloc1_1_0
                           3696 ; Removed redundent load
                           3697 ; Removed redundent load
   031B 1A                 3698 	ld	a,(de)
   031C F8 02              3699 	lda	hl,2(sp)
   031E 77                 3700 	ld	(hl),a
   031F 13                 3701 	inc	de
   0320 1A                 3702 	ld	a,(de)
   0321 23                 3703 	inc	hl
   0322 77                 3704 	ld	(hl),a
                           3705 ; genPointerGet
   0323 11 BC 01           3706 	ld	de,#_playerxy + 0
   0326 1A                 3707 	ld	a,(de)
   0327 4F                 3708 	ld	c,a
   0328 13                 3709 	inc	de
   0329 1A                 3710 	ld	a,(de)
   032A 47                 3711 	ld	b,a
                           3712 ; genIpush
                           3713 ; AOP_STK for _checkInput_sloc1_1_0
   032B 2B                 3714 	dec	hl
   032C 2A                 3715 	ld	a,(hl+)
   032D 66                 3716 	ld	h,(hl)
   032E 6F                 3717 	ld	l,a
   032F E5                 3718 	push	hl
                           3719 ; genIpush
   0330 C5                 3720 	push	bc
                           3721 ; genIpush
   0331 21 D6 03           3722 	ld	hl,#__str_0 + 0
   0334 E5                 3723 	push	hl
                           3724 ; genCall
   0335 CD 00 00           3725 	call	_printf
   0338 E8 06              3726 	lda	sp,6(sp)
                           3727 ;	main.c 184
                           3728 ; genCast
                           3729 ; AOP_HL for _c3
                           3730 ; AOP_STK for _checkInput_sloc1_1_0
   033A 21 2F 03           3731 	ld	hl,#_c3 + 0
   033D 7E                 3732 	ld	a,(hl)
   033E F8 02              3733 	lda	hl,2(sp)
   0340 22                 3734 	ld	(hl+),a
   0341 36 00              3735 	ld	(hl),#0x00
                           3736 ; genCast
                           3737 ; AOP_HL for _c2
                           3738 ; AOP_STK for _checkInput_sloc0_1_0
   0343 21 2E 03           3739 	ld	hl,#_c2 + 0
   0346 7E                 3740 	ld	a,(hl)
   0347 F8 04              3741 	lda	hl,4(sp)
   0349 22                 3742 	ld	(hl+),a
   034A 36 00              3743 	ld	(hl),#0x00
                           3744 ; genCast
                           3745 ; AOP_HL for _c1
                           3746 ; AOP_STK for _checkInput_sloc2_1_0
   034C 21 2D 03           3747 	ld	hl,#_c1 + 0
   034F 7E                 3748 	ld	a,(hl)
   0350 F8 00              3749 	lda	hl,0(sp)
   0352 22                 3750 	ld	(hl+),a
   0353 36 00              3751 	ld	(hl),#0x00
                           3752 ; genCast
                           3753 ; AOP_HL for _c0
   0355 21 2C 03           3754 	ld	hl,#_c0 + 0
   0358 4E                 3755 	ld	c,(hl)
   0359 06 00              3756 	ld	b,#0x00
                           3757 ; genIpush
                           3758 ; AOP_STK for _checkInput_sloc1_1_0
   035B F8 02              3759 	lda	hl,2(sp)
   035D 2A                 3760 	ld	a,(hl+)
   035E 66                 3761 	ld	h,(hl)
   035F 6F                 3762 	ld	l,a
   0360 E5                 3763 	push	hl
                           3764 ; genIpush
                           3765 ; AOP_STK for _checkInput_sloc0_1_0
   0361 F8 06              3766 	lda	hl,6(sp)
   0363 2A                 3767 	ld	a,(hl+)
   0364 66                 3768 	ld	h,(hl)
   0365 6F                 3769 	ld	l,a
   0366 E5                 3770 	push	hl
                           3771 ; genIpush
                           3772 ; AOP_STK for _checkInput_sloc2_1_0
   0367 F8 04              3773 	lda	hl,4(sp)
   0369 2A                 3774 	ld	a,(hl+)
   036A 66                 3775 	ld	h,(hl)
   036B 6F                 3776 	ld	l,a
   036C E5                 3777 	push	hl
                           3778 ; genIpush
   036D C5                 3779 	push	bc
                           3780 ; genIpush
   036E 21 E0 03           3781 	ld	hl,#__str_1 + 0
   0371 E5                 3782 	push	hl
                           3783 ; genCall
   0372 CD 00 00           3784 	call	_printf
   0375 E8 0A              3785 	lda	sp,10(sp)
                           3786 ; genLabel
   0377                    3787 00114$:
                           3788 ;	main.c 187
                           3789 ; genCall
   0377 CD 00 00           3790 	call	_joypad
   037A 4B                 3791 	ld	c,e
                           3792 ; genAnd
   037B 79                 3793 	ld	a,c
   037C CB 67              3794 	bit	4,a
   037E CA D2 03           3795 	jp	z,00121$
                           3796 ;	main.c 189
                           3797 ; genCmpEq
                           3798 ; AOP_HL for _onGround
   0381 21 31 03           3799 	ld	hl,#_onGround + 0
   0384 7E                 3800 	ld	a,(hl) ; 2
   0385 FE 01              3801 	cp	a,#0x01
   0387 C2 8C 03           3802 	jp	nz,00137$
   038A 18 03              3803 	jr	00138$
   038C                    3804 00137$:
   038C C3 D2 03           3805 	jp	00121$
   038F                    3806 00138$:
                           3807 ;	main.c 190
                           3808 ; genCmpEq
                           3809 ; AOP_HL for _c0
   038F 21 2C 03           3810 	ld	hl,#_c0 + 0
   0392 7E                 3811 	ld	a,(hl)
   0393 B7                 3812 	or	a,a
   0394 C2 99 03           3813 	jp	nz,00139$
   0397 18 03              3814 	jr	00140$
   0399                    3815 00139$:
   0399 C3 D2 03           3816 	jp	00121$
   039C                    3817 00140$:
                           3818 ;	main.c 191
                           3819 ; genPlus
                           3820 ; AOP_STK for _checkInput_sloc1_1_0
                           3821 ; genPlusIncr
                           3822 ;	genPlusIncr failed
   039C 11 BC 01           3823 	ld	de,#_playerxy + 0
   039F 21 02 00           3824 	ld	hl,#0x0002
   03A2 19                 3825 	add	hl,de
   03A3 7D                 3826 	ld	a,l
   03A4 54                 3827 	ld	d,h
   03A5 F8 02              3828 	lda	hl,2(sp)
   03A7 22                 3829 	ld	(hl+),a
   03A8 72                 3830 	ld	(hl),d
                           3831 ; genPointerGet
                           3832 ; AOP_STK for _checkInput_sloc1_1_0
                           3833 ; AOP_STK for _checkInput_sloc2_1_0
   03A9 2B                 3834 	dec	hl
   03AA 5E                 3835 	ld	e,(hl)
   03AB 23                 3836 	inc	hl
   03AC 56                 3837 	ld	d,(hl)
   03AD 1A                 3838 	ld	a,(de)
   03AE F8 00              3839 	lda	hl,0(sp)
   03B0 77                 3840 	ld	(hl),a
   03B1 13                 3841 	inc	de
   03B2 1A                 3842 	ld	a,(de)
   03B3 23                 3843 	inc	hl
   03B4 77                 3844 	ld	(hl),a
                           3845 ; genMinus
                           3846 ; AOP_STK for _checkInput_sloc2_1_0
   03B5 2B                 3847 	dec	hl
   03B6 5E                 3848 	ld	e,(hl)
   03B7 23                 3849 	inc	hl
   03B8 56                 3850 	ld	d,(hl)
   03B9 21 18 00           3851 	ld	hl,#0x0018
   03BC 7B                 3852 	ld	a,e
   03BD 95                 3853 	sub	a,l
   03BE 5F                 3854 	ld	e,a
   03BF 7A                 3855 	ld	a,d
   03C0 9C                 3856 	sbc	a,h
   03C1 47                 3857 	ld	b,a
   03C2 4B                 3858 	ld	c,e
                           3859 ; genAssign (pointer)
                           3860 ; AOP_STK for _checkInput_sloc1_1_0
   03C3 F8 02              3861 	lda	hl,2(sp)
   03C5 5E                 3862 	ld	e,(hl)
   03C6 23                 3863 	inc	hl
   03C7 56                 3864 	ld	d,(hl)
   03C8 79                 3865 	ld	a,c
   03C9 12                 3866 	ld	(de),a
   03CA 13                 3867 	inc	de
   03CB 78                 3868 	ld	a,b
   03CC 12                 3869 	ld	(de),a
                           3870 ;	main.c 192
                           3871 ; genAssign
                           3872 ; AOP_HL for _onGround
   03CD 21 31 03           3873 	ld	hl,#_onGround + 0
   03D0 36 00              3874 	ld	(hl),#0x00
                           3875 ; genLabel
   03D2                    3876 00121$:
                           3877 ; genEndFunction
   03D2 E8 06              3878 	lda	sp,6(sp)
   03D4 C1                 3879 	pop	bc
   03D5 C9                 3880 	ret
   03D6                    3881 ___checkInput_end:
   03D6                    3882 __str_0:
   03D6 58 25 75 20 59 25  3883 	.ascii "X%u Y%u "
        75 20
   03DE 0A                 3884 	.db 0x0A
   03DF 00                 3885 	.db 0x00
   03E0                    3886 __str_1:
   03E0 43 20 30 3A 25 75  3887 	.ascii "C 0:%u 1:%u 2:%u 3:%u  "
        20 31 3A 25 75 20
        32 3A 25 75 20 33
        3A 25 75 20 20
   03F7 0A                 3888 	.db 0x0A
   03F8 00                 3889 	.db 0x00
                           3890 ;	main.c 214
                           3891 ; genLabel
                           3892 ; genFunction
                           3893 ;	---------------------------------
                           3894 ; Function main
                           3895 ; ---------------------------------
   03F9                    3896 ___main_start:
   03F9                    3897 _main:
   03F9 C5                 3898 	push	bc
   03FA E8 F8              3899 	lda	sp,-8(sp)
                           3900 ;	main.c 215
                           3901 ; genCall
   03FC CD 00 00           3902 	call	_init
                           3903 ;	main.c 217
                           3904 ; genLabel
   03FF                    3905 00107$:
                           3906 ;	main.c 218
                           3907 ; genCall
   03FF CD 00 00           3908 	call	_wait_vbl_done
                           3909 ;	main.c 223
                           3910 ; genPlus
                           3911 ; AOP_STK for _main_sloc1_1_0
                           3912 ; genPlusIncr
                           3913 ;	genPlusIncr failed
   0402 11 BC 01           3914 	ld	de,#_playerxy + 0
   0405 21 02 00           3915 	ld	hl,#0x0002
   0408 19                 3916 	add	hl,de
   0409 7D                 3917 	ld	a,l
   040A 54                 3918 	ld	d,h
   040B F8 04              3919 	lda	hl,4(sp)
   040D 22                 3920 	ld	(hl+),a
   040E 72                 3921 	ld	(hl),d
                           3922 ; genPointerGet
                           3923 ; AOP_STK for _main_sloc1_1_0
                           3924 ; AOP_STK for _main_sloc0_1_0
   040F 2B                 3925 	dec	hl
   0410 5E                 3926 	ld	e,(hl)
   0411 23                 3927 	inc	hl
   0412 56                 3928 	ld	d,(hl)
   0413 1A                 3929 	ld	a,(de)
   0414 23                 3930 	inc	hl
   0415 77                 3931 	ld	(hl),a
   0416 13                 3932 	inc	de
   0417 1A                 3933 	ld	a,(de)
   0418 23                 3934 	inc	hl
   0419 77                 3935 	ld	(hl),a
                           3936 ; genCmpGt
                           3937 ; AOP_STK for _main_sloc0_1_0
   041A 2B                 3938 	dec	hl
   041B 5E                 3939 	ld	e,(hl)
   041C 23                 3940 	inc	hl
   041D 56                 3941 	ld	d,(hl)
   041E 21 6A FF           3942 	ld	hl,#0xFF6A
   0421 19                 3943 	add	hl,de
   0422 D2 31 04           3944 	jp	nc,00102$
                           3945 ;	main.c 224
                           3946 ; genAssign (pointer)
                           3947 ; AOP_STK for _main_sloc1_1_0
   0425 F8 04              3948 	lda	hl,4(sp)
   0427 5E                 3949 	ld	e,(hl)
   0428 23                 3950 	inc	hl
   0429 56                 3951 	ld	d,(hl)
   042A 3E 0F              3952 	ld	a,#0x0F
   042C 12                 3953 	ld	(de),a
   042D 13                 3954 	inc	de
   042E 3E 00              3955 	ld	a,#0x00
   0430 12                 3956 	ld	(de),a
                           3957 ; genLabel
   0431                    3958 00102$:
                           3959 ;	main.c 228
                           3960 ; genCall
   0431 CD 56 02           3961 	call	_checkInput
                           3962 ;	main.c 230
                           3963 ; genPointerGet
                           3964 ; AOP_STK for _main_sloc1_1_0
                           3965 ; AOP_STK for _main_sloc0_1_0
   0434 F8 04              3966 	lda	hl,4(sp)
   0436 5E                 3967 	ld	e,(hl)
   0437 23                 3968 	inc	hl
   0438 56                 3969 	ld	d,(hl)
   0439 1A                 3970 	ld	a,(de)
   043A 23                 3971 	inc	hl
   043B 77                 3972 	ld	(hl),a
   043C 13                 3973 	inc	de
   043D 1A                 3974 	ld	a,(de)
   043E 23                 3975 	inc	hl
   043F 77                 3976 	ld	(hl),a
                           3977 ; genPointerGet
   0440 11 BC 01           3978 	ld	de,#_playerxy + 0
   0443 1A                 3979 	ld	a,(de)
   0444 4F                 3980 	ld	c,a
   0445 13                 3981 	inc	de
   0446 1A                 3982 	ld	a,(de)
   0447 47                 3983 	ld	b,a
                           3984 ; genIpush
   0448 21 08 00           3985 	ld	hl,#0x0008
   044B E5                 3986 	push	hl
                           3987 ; genIpush
   044C 21 07 00           3988 	ld	hl,#0x0007
   044F E5                 3989 	push	hl
                           3990 ; genIpush
                           3991 ; AOP_STK for _main_sloc0_1_0
   0450 F8 0A              3992 	lda	hl,10(sp)
   0452 2A                 3993 	ld	a,(hl+)
   0453 66                 3994 	ld	h,(hl)
   0454 6F                 3995 	ld	l,a
   0455 E5                 3996 	push	hl
                           3997 ; genIpush
   0456 C5                 3998 	push	bc
                           3999 ; genCall
   0457 CD BC 00           4000 	call	_map_collision
   045A E8 08              4001 	lda	sp,8(sp)
                           4002 ;	main.c 232
                           4003 ; genCmpEq
                           4004 ; AOP_HL for _c2
   045C 21 2E 03           4005 	ld	hl,#_c2 + 0
   045F 7E                 4006 	ld	a,(hl)
   0460 B7                 4007 	or	a,a
                           4008 ; Rule 5
   0461 CA 90 04           4009 	jp	z,00104$
   0464                    4010 00114$:
                           4011 ;	main.c 233
                           4012 ; genIpush
   0464 3E 00              4013 	ld	a,#0x00
   0466 F5                 4014 	push	af
   0467 33                 4015 	inc	sp
                           4016 ; genIpush
   0468 3E 00              4017 	ld	a,#0x00
   046A F5                 4018 	push	af
   046B 33                 4019 	inc	sp
                           4020 ; genCall
   046C CD 00 00           4021 	call	_set_sprite_tile
   046F E8 02              4022 	lda	sp,2(sp)
                           4023 ;	main.c 234
                           4024 ; genAssign
                           4025 ; AOP_HL for _velocityY
   0471 21 30 03           4026 	ld	hl,#_velocityY + 0
   0474 36 00              4027 	ld	(hl),#0x00
                           4028 ;	main.c 235
                           4029 ; genPlus
                           4030 ; genPlusIncr
   0476 11 C2 01           4031 	ld	de,#__playerxy + 0 + 2
                           4032 ; genPointerGet
                           4033 ; Removed redundent load
                           4034 ; Removed redundent load
   0479 1A                 4035 	ld	a,(de)
   047A 4F                 4036 	ld	c,a
   047B 13                 4037 	inc	de
   047C 1A                 4038 	ld	a,(de)
   047D 47                 4039 	ld	b,a
                           4040 ; genAssign (pointer)
                           4041 ; AOP_STK for _main_sloc1_1_0
   047E F8 04              4042 	lda	hl,4(sp)
   0480 5E                 4043 	ld	e,(hl)
   0481 23                 4044 	inc	hl
   0482 56                 4045 	ld	d,(hl)
   0483 79                 4046 	ld	a,c
   0484 12                 4047 	ld	(de),a
   0485 13                 4048 	inc	de
   0486 78                 4049 	ld	a,b
   0487 12                 4050 	ld	(de),a
                           4051 ;	main.c 236
                           4052 ; genAssign
                           4053 ; AOP_HL for _onGround
   0488 21 31 03           4054 	ld	hl,#_onGround + 0
   048B 36 01              4055 	ld	(hl),#0x01
                           4056 ; genGoto
   048D C3 B2 04           4057 	jp	00105$
                           4058 ; genLabel
   0490                    4059 00104$:
                           4060 ;	main.c 239
                           4061 ; genIpush
   0490 3E 01              4062 	ld	a,#0x01
   0492 F5                 4063 	push	af
   0493 33                 4064 	inc	sp
                           4065 ; genIpush
   0494 3E 00              4066 	ld	a,#0x00
   0496 F5                 4067 	push	af
   0497 33                 4068 	inc	sp
                           4069 ; genCall
   0498 CD 00 00           4070 	call	_set_sprite_tile
   049B E8 02              4071 	lda	sp,2(sp)
                           4072 ;	main.c 241
                           4073 ; genPointerGet
                           4074 ; AOP_STK for _main_sloc1_1_0
   049D F8 04              4075 	lda	hl,4(sp)
   049F 5E                 4076 	ld	e,(hl)
   04A0 23                 4077 	inc	hl
   04A1 56                 4078 	ld	d,(hl)
   04A2 1A                 4079 	ld	a,(de)
   04A3 4F                 4080 	ld	c,a
   04A4 13                 4081 	inc	de
   04A5 1A                 4082 	ld	a,(de)
   04A6 47                 4083 	ld	b,a
                           4084 ; genPlus
                           4085 ; genPlusIncr
   04A7 03                 4086 	inc	bc
   04A8 03                 4087 	inc	bc
                           4088 ; genAssign (pointer)
                           4089 ; AOP_STK for _main_sloc1_1_0
   04A9 2B                 4090 	dec	hl
   04AA 5E                 4091 	ld	e,(hl)
   04AB 23                 4092 	inc	hl
   04AC 56                 4093 	ld	d,(hl)
   04AD 79                 4094 	ld	a,c
   04AE 12                 4095 	ld	(de),a
   04AF 13                 4096 	inc	de
   04B0 78                 4097 	ld	a,b
   04B1 12                 4098 	ld	(de),a
                           4099 ; genLabel
   04B2                    4100 00105$:
                           4101 ;	main.c 244
                           4102 ; genPlus
                           4103 ; genPlusIncr
   04B2 11 BE 01           4104 	ld	de,#_playerxy + 0 + 2
                           4105 ; genPointerGet
                           4106 ; AOP_STK for _main_sloc0_1_0
                           4107 ; Removed redundent load
                           4108 ; Removed redundent load
   04B5 1A                 4109 	ld	a,(de)
   04B6 F8 06              4110 	lda	hl,6(sp)
   04B8 77                 4111 	ld	(hl),a
   04B9 13                 4112 	inc	de
   04BA 1A                 4113 	ld	a,(de)
   04BB 23                 4114 	inc	hl
   04BC 77                 4115 	ld	(hl),a
                           4116 ; genPlus
                           4117 ; AOP_STK for _main_sloc0_1_0
                           4118 ; AOP_STK for _main_sloc1_1_0
                           4119 ; genPlusIncr
                           4120 ;	genPlusIncr failed
   04BD 2B                 4121 	dec	hl
   04BE 5E                 4122 	ld	e,(hl)
   04BF 23                 4123 	inc	hl
   04C0 56                 4124 	ld	d,(hl)
   04C1 21 10 00           4125 	ld	hl,#0x0010
   04C4 19                 4126 	add	hl,de
   04C5 7D                 4127 	ld	a,l
   04C6 54                 4128 	ld	d,h
   04C7 F8 04              4129 	lda	hl,4(sp)
   04C9 22                 4130 	ld	(hl+),a
   04CA 72                 4131 	ld	(hl),d
                           4132 ; genCast
                           4133 ; AOP_STK for _main_sloc1_1_0
                           4134 ; genPointerGet
                           4135 ; AOP_STK for _main_sloc3_1_0
   04CB 11 BC 01           4136 	ld	de,#_playerxy + 0
   04CE 1A                 4137 	ld	a,(de)
   04CF F8 00              4138 	lda	hl,0(sp)
   04D1 77                 4139 	ld	(hl),a
   04D2 13                 4140 	inc	de
   04D3 1A                 4141 	ld	a,(de)
   04D4 23                 4142 	inc	hl
   04D5 77                 4143 	ld	(hl),a
                           4144 ; genPlus
                           4145 ; AOP_STK for _main_sloc3_1_0
                           4146 ; AOP_STK for _main_sloc2_1_0
                           4147 ; genPlusIncr
                           4148 ;	genPlusIncr failed
   04D6 2B                 4149 	dec	hl
   04D7 5E                 4150 	ld	e,(hl)
   04D8 23                 4151 	inc	hl
   04D9 56                 4152 	ld	d,(hl)
   04DA 21 08 00           4153 	ld	hl,#0x0008
   04DD 19                 4154 	add	hl,de
   04DE 7D                 4155 	ld	a,l
   04DF 54                 4156 	ld	d,h
   04E0 F8 02              4157 	lda	hl,2(sp)
   04E2 22                 4158 	ld	(hl+),a
   04E3 72                 4159 	ld	(hl),d
                           4160 ; genCast
                           4161 ; AOP_STK for _main_sloc2_1_0
   04E4 2B                 4162 	dec	hl
   04E5 4E                 4163 	ld	c,(hl)
                           4164 ; genIpush
                           4165 ; AOP_STK for _main_sloc1_1_0
   04E6 23                 4166 	inc	hl
   04E7 23                 4167 	inc	hl
   04E8 7E                 4168 	ld	a,(hl)
   04E9 F5                 4169 	push	af
   04EA 33                 4170 	inc	sp
                           4171 ; genIpush
   04EB 79                 4172 	ld	a,c
   04EC F5                 4173 	push	af
   04ED 33                 4174 	inc	sp
                           4175 ; genIpush
   04EE 3E 00              4176 	ld	a,#0x00
   04F0 F5                 4177 	push	af
   04F1 33                 4178 	inc	sp
                           4179 ; genCall
   04F2 CD 00 00           4180 	call	_move_sprite
   04F5 E8 03              4181 	lda	sp,3(sp)
                           4182 ;	main.c 246
                           4183 ; genAssign (pointer)
                           4184 ; AOP_STK for _main_sloc3_1_0
   04F7 11 C0 01           4185 	ld	de,#__playerxy + 0
   04FA F8 00              4186 	lda	hl,0(sp)
   04FC 7E                 4187 	ld	a,(hl)
   04FD 12                 4188 	ld	(de),a
   04FE 13                 4189 	inc	de
   04FF 23                 4190 	inc	hl
   0500 7E                 4191 	ld	a,(hl)
   0501 12                 4192 	ld	(de),a
                           4193 ;	main.c 247
                           4194 ; genPlus
                           4195 ; genPlusIncr
   0502 11 C2 01           4196 	ld	de,#__playerxy + 0 + 2
                           4197 ; genAssign (pointer)
                           4198 ; AOP_STK for _main_sloc0_1_0
   0505 F8 06              4199 	lda	hl,6(sp)
   0507 7E                 4200 	ld	a,(hl)
   0508 12                 4201 	ld	(de),a
   0509 13                 4202 	inc	de
   050A 23                 4203 	inc	hl
   050B 7E                 4204 	ld	a,(hl)
   050C 12                 4205 	ld	(de),a
                           4206 ; genGoto
   050D C3 FF 03           4207 	jp	00107$
                           4208 ; genLabel
   0510                    4209 00109$:
                           4210 ; genEndFunction
   0510 E8 08              4211 	lda	sp,8(sp)
   0512 C1                 4212 	pop	bc
   0513 C9                 4213 	ret
   0514                    4214 ___main_end:
                           4215 	.area _CODE
ASxxxx Assembler V01.75  (GameBoy Z80-like CPU), page 1.

Symbol Table

    _BCPD_REG                          **** GX
    _BCPS_REG                          **** GX
    _BGP_REG                           **** GX
    _DIV_REG                           **** GX
    _DMA_REG                           **** GX
    _HDMA1_REG                         **** GX
    _HDMA2_REG                         **** GX
    _HDMA3_REG                         **** GX
    _HDMA4_REG                         **** GX
    _HDMA5_REG                         **** GX
    _IE_REG                            **** GX
    _IF_REG                            **** GX
    _KEY1_REG                          **** GX
    _LCDC_REG                          **** GX
    _LYC_REG                           **** GX
    _LY_REG                            **** GX
    _NR10_REG                          **** GX
    _NR11_REG                          **** GX
    _NR12_REG                          **** GX
    _NR13_REG                          **** GX
    _NR14_REG                          **** GX
    _NR21_REG                          **** GX
    _NR22_REG                          **** GX
    _NR23_REG                          **** GX
    _NR24_REG                          **** GX
    _NR30_REG                          **** GX
    _NR31_REG                          **** GX
    _NR32_REG                          **** GX
    _NR33_REG                          **** GX
    _NR34_REG                          **** GX
    _NR41_REG                          **** GX
    _NR42_REG                          **** GX
    _NR43_REG                          **** GX
    _NR44_REG                          **** GX
    _NR50_REG                          **** GX
    _NR51_REG                          **** GX
    _NR52_REG                          **** GX
    _OBP0_REG                          **** GX
    _OBP1_REG                          **** GX
    _OCPD_REG                          **** GX
    _OCPS_REG                          **** GX
    _P1_REG                            **** GX
    _RP_REG                            **** GX
    _SB_REG                            **** GX
    _SCX_REG                           **** GX
    _SCY_REG                           **** GX
    _SC_REG                            **** GX
    _STAT_REG                          **** GX
    _SVBK_REG                          **** GX
    _TAC_REG                           **** GX
    _TIMA_REG                          **** GX
    _TMA_REG                           **** GX
    _VBK_REG                           **** GX
    _WX_REG                            **** GX
    _WY_REG                            **** GX
  0 ___checkInput_end                  03D6 R
  0 ___checkInput_start                0256 R
  0 ___init_end                        009C R
  0 ___init_start                      0000 R
  0 ___main_end                        0514 R
  0 ___main_start                      03F9 R
  0 ___map_collision_end               0256 R
  0 ___map_collision_start             00BC R
    __cpu                              **** GX
    __io_in                            **** GX
    __io_out                           **** GX
    __io_status                        **** GX
    __muluint                          **** GX
  1 __playerxy                         01C0 GR
  0 __str_0                            03D6 R
  0 __str_1                            03E0 R
  1 _c0                                032C GR
  1 _c1                                032D GR
  1 _c2                                032E GR
  1 _c3                                032F GR
  0 _checkInput                        0256 GR
  1 _col_mapxy                         01C4 GR
  0 _face                              009C GR
  0 _init                              0000 GR
    _joypad                            **** GX
  0 _main                              03F9 GR
  1 _map                               0000 GR
  0 _map_collision                     00BC GR
  1 _maptiles                          017C GR
    _move_sprite                       **** GX
  1 _onGround                          0331 GR
  1 _playerxy                          01BC GR
    _printf                            **** GX
    _set_bkg_data                      **** GX
    _set_bkg_tiles                     **** GX
    _set_sprite_data                   **** GX
    _set_sprite_tile                   **** GX
  1 _stepCounter                       0332 GR
    _sys_time                          **** GX
  1 _velocityY                         0330 GR
    _wait_vbl_done                     **** GX

ASxxxx Assembler V01.75  (GameBoy Z80-like CPU), page 2.

Area Table

   0 _CODE                              size  514   flags 0
   1 _DATA                              size  333   flags 0
   2 _OVERLAY                           size    0   flags 0
   3 _ISEG                              size    0   flags 0
   4 _BSEG                              size    0   flags 0
   5 _XSEG                              size    0   flags 0
   6 _GSINIT                            size  A77   flags 0
   7 _GSFINAL                           size    0   flags 0
   8 _HOME                              size    0   flags 0
